ARM GAS  C:\Users\ALEX'S~1\AppData\Local\Temp\ccjCNn9l.s 			page 1


   1              		.cpu cortex-m4
   2              		.eabi_attribute 27, 1
   3              		.eabi_attribute 28, 1
   4              		.eabi_attribute 20, 1
   5              		.eabi_attribute 21, 1
   6              		.eabi_attribute 23, 3
   7              		.eabi_attribute 24, 1
   8              		.eabi_attribute 25, 1
   9              		.eabi_attribute 26, 1
  10              		.eabi_attribute 30, 2
  11              		.eabi_attribute 34, 1
  12              		.eabi_attribute 18, 4
  13              		.file	"cmsis_os.c"
  14              		.text
  15              	.Ltext0:
  16              		.cfi_sections	.debug_frame
  17              		.section	.text.osKernelStart,"ax",%progbits
  18              		.align	1
  19              		.p2align 2,,3
  20              		.global	osKernelStart
  21              		.syntax unified
  22              		.thumb
  23              		.thumb_func
  24              		.fpu fpv4-sp-d16
  26              	osKernelStart:
  27              	.LFB33:
  28              		.file 1 "Middlewares/Third_Party/FreeRTOS/Source/CMSIS_RTOS/cmsis_os.c"
   1:Middlewares/Third_Party/FreeRTOS/Source/CMSIS_RTOS/cmsis_os.c **** /* ----------------------------------------------------------------------
   2:Middlewares/Third_Party/FreeRTOS/Source/CMSIS_RTOS/cmsis_os.c ****  * $Date:        5. February 2013
   3:Middlewares/Third_Party/FreeRTOS/Source/CMSIS_RTOS/cmsis_os.c ****  * $Revision:    V1.02
   4:Middlewares/Third_Party/FreeRTOS/Source/CMSIS_RTOS/cmsis_os.c ****  *
   5:Middlewares/Third_Party/FreeRTOS/Source/CMSIS_RTOS/cmsis_os.c ****  * Project:      CMSIS-RTOS API
   6:Middlewares/Third_Party/FreeRTOS/Source/CMSIS_RTOS/cmsis_os.c ****  * Title:        cmsis_os.c
   7:Middlewares/Third_Party/FreeRTOS/Source/CMSIS_RTOS/cmsis_os.c ****  *
   8:Middlewares/Third_Party/FreeRTOS/Source/CMSIS_RTOS/cmsis_os.c ****  * Version 0.02
   9:Middlewares/Third_Party/FreeRTOS/Source/CMSIS_RTOS/cmsis_os.c ****  *    Initial Proposal Phase
  10:Middlewares/Third_Party/FreeRTOS/Source/CMSIS_RTOS/cmsis_os.c ****  * Version 0.03
  11:Middlewares/Third_Party/FreeRTOS/Source/CMSIS_RTOS/cmsis_os.c ****  *    osKernelStart added, optional feature: main started as thread
  12:Middlewares/Third_Party/FreeRTOS/Source/CMSIS_RTOS/cmsis_os.c ****  *    osSemaphores have standard behavior
  13:Middlewares/Third_Party/FreeRTOS/Source/CMSIS_RTOS/cmsis_os.c ****  *    osTimerCreate does not start the timer, added osTimerStart
  14:Middlewares/Third_Party/FreeRTOS/Source/CMSIS_RTOS/cmsis_os.c ****  *    osThreadPass is renamed to osThreadYield
  15:Middlewares/Third_Party/FreeRTOS/Source/CMSIS_RTOS/cmsis_os.c ****  * Version 1.01
  16:Middlewares/Third_Party/FreeRTOS/Source/CMSIS_RTOS/cmsis_os.c ****  *    Support for C++ interface
  17:Middlewares/Third_Party/FreeRTOS/Source/CMSIS_RTOS/cmsis_os.c ****  *     - const attribute removed from the osXxxxDef_t typedef's
  18:Middlewares/Third_Party/FreeRTOS/Source/CMSIS_RTOS/cmsis_os.c ****  *     - const attribute added to the osXxxxDef macros
  19:Middlewares/Third_Party/FreeRTOS/Source/CMSIS_RTOS/cmsis_os.c ****  *    Added: osTimerDelete, osMutexDelete, osSemaphoreDelete
  20:Middlewares/Third_Party/FreeRTOS/Source/CMSIS_RTOS/cmsis_os.c ****  *    Added: osKernelInitialize
  21:Middlewares/Third_Party/FreeRTOS/Source/CMSIS_RTOS/cmsis_os.c ****  * Version 1.02
  22:Middlewares/Third_Party/FreeRTOS/Source/CMSIS_RTOS/cmsis_os.c ****  *    Control functions for short timeouts in microsecond resolution:
  23:Middlewares/Third_Party/FreeRTOS/Source/CMSIS_RTOS/cmsis_os.c ****  *    Added: osKernelSysTick, osKernelSysTickFrequency, osKernelSysTickMicroSec
  24:Middlewares/Third_Party/FreeRTOS/Source/CMSIS_RTOS/cmsis_os.c ****  *    Removed: osSignalGet 
  25:Middlewares/Third_Party/FreeRTOS/Source/CMSIS_RTOS/cmsis_os.c ****  *    
  26:Middlewares/Third_Party/FreeRTOS/Source/CMSIS_RTOS/cmsis_os.c ****  *  
  27:Middlewares/Third_Party/FreeRTOS/Source/CMSIS_RTOS/cmsis_os.c ****  *----------------------------------------------------------------------------
  28:Middlewares/Third_Party/FreeRTOS/Source/CMSIS_RTOS/cmsis_os.c ****  *
  29:Middlewares/Third_Party/FreeRTOS/Source/CMSIS_RTOS/cmsis_os.c ****  * Portions Copyright © 2016 STMicroelectronics International N.V. All rights reserved.
  30:Middlewares/Third_Party/FreeRTOS/Source/CMSIS_RTOS/cmsis_os.c ****  * Portions Copyright (c) 2013 ARM LIMITED
ARM GAS  C:\Users\ALEX'S~1\AppData\Local\Temp\ccjCNn9l.s 			page 2


  31:Middlewares/Third_Party/FreeRTOS/Source/CMSIS_RTOS/cmsis_os.c ****  * All rights reserved.
  32:Middlewares/Third_Party/FreeRTOS/Source/CMSIS_RTOS/cmsis_os.c ****  * Redistribution and use in source and binary forms, with or without
  33:Middlewares/Third_Party/FreeRTOS/Source/CMSIS_RTOS/cmsis_os.c ****  * modification, are permitted provided that the following conditions are met:
  34:Middlewares/Third_Party/FreeRTOS/Source/CMSIS_RTOS/cmsis_os.c ****  *  - Redistributions of source code must retain the above copyright
  35:Middlewares/Third_Party/FreeRTOS/Source/CMSIS_RTOS/cmsis_os.c ****  *    notice, this list of conditions and the following disclaimer.
  36:Middlewares/Third_Party/FreeRTOS/Source/CMSIS_RTOS/cmsis_os.c ****  *  - Redistributions in binary form must reproduce the above copyright
  37:Middlewares/Third_Party/FreeRTOS/Source/CMSIS_RTOS/cmsis_os.c ****  *    notice, this list of conditions and the following disclaimer in the
  38:Middlewares/Third_Party/FreeRTOS/Source/CMSIS_RTOS/cmsis_os.c ****  *    documentation and/or other materials provided with the distribution.
  39:Middlewares/Third_Party/FreeRTOS/Source/CMSIS_RTOS/cmsis_os.c ****  *  - Neither the name of ARM  nor the names of its contributors may be used
  40:Middlewares/Third_Party/FreeRTOS/Source/CMSIS_RTOS/cmsis_os.c ****  *    to endorse or promote products derived from this software without
  41:Middlewares/Third_Party/FreeRTOS/Source/CMSIS_RTOS/cmsis_os.c ****  *    specific prior written permission.
  42:Middlewares/Third_Party/FreeRTOS/Source/CMSIS_RTOS/cmsis_os.c ****  *
  43:Middlewares/Third_Party/FreeRTOS/Source/CMSIS_RTOS/cmsis_os.c ****  * THIS SOFTWARE IS PROVIDED BY THE COPYRIGHT HOLDERS AND CONTRIBUTORS "AS IS"
  44:Middlewares/Third_Party/FreeRTOS/Source/CMSIS_RTOS/cmsis_os.c ****  * AND ANY EXPRESS OR IMPLIED WARRANTIES, INCLUDING, BUT NOT LIMITED TO, THE
  45:Middlewares/Third_Party/FreeRTOS/Source/CMSIS_RTOS/cmsis_os.c ****  * IMPLIED WARRANTIES OF MERCHANTABILITY AND FITNESS FOR A PARTICULAR PURPOSE
  46:Middlewares/Third_Party/FreeRTOS/Source/CMSIS_RTOS/cmsis_os.c ****  * ARE DISCLAIMED. IN NO EVENT SHALL COPYRIGHT HOLDERS AND CONTRIBUTORS BE
  47:Middlewares/Third_Party/FreeRTOS/Source/CMSIS_RTOS/cmsis_os.c ****  * LIABLE FOR ANY DIRECT, INDIRECT, INCIDENTAL, SPECIAL, EXEMPLARY, OR
  48:Middlewares/Third_Party/FreeRTOS/Source/CMSIS_RTOS/cmsis_os.c ****  * CONSEQUENTIAL DAMAGES (INCLUDING, BUT NOT LIMITED TO, PROCUREMENT OF
  49:Middlewares/Third_Party/FreeRTOS/Source/CMSIS_RTOS/cmsis_os.c ****  * SUBSTITUTE GOODS OR SERVICES; LOSS OF USE, DATA, OR PROFITS; OR BUSINESS
  50:Middlewares/Third_Party/FreeRTOS/Source/CMSIS_RTOS/cmsis_os.c ****  * INTERRUPTION) HOWEVER CAUSED AND ON ANY THEORY OF LIABILITY, WHETHER IN
  51:Middlewares/Third_Party/FreeRTOS/Source/CMSIS_RTOS/cmsis_os.c ****  * CONTRACT, STRICT LIABILITY, OR TORT (INCLUDING NEGLIGENCE OR OTHERWISE)
  52:Middlewares/Third_Party/FreeRTOS/Source/CMSIS_RTOS/cmsis_os.c ****  * ARISING IN ANY WAY OUT OF THE USE OF THIS SOFTWARE, EVEN IF ADVISED OF THE
  53:Middlewares/Third_Party/FreeRTOS/Source/CMSIS_RTOS/cmsis_os.c ****  * POSSIBILITY OF SUCH DAMAGE.
  54:Middlewares/Third_Party/FreeRTOS/Source/CMSIS_RTOS/cmsis_os.c ****  *---------------------------------------------------------------------------*/
  55:Middlewares/Third_Party/FreeRTOS/Source/CMSIS_RTOS/cmsis_os.c **** 
  56:Middlewares/Third_Party/FreeRTOS/Source/CMSIS_RTOS/cmsis_os.c ****  /**
  57:Middlewares/Third_Party/FreeRTOS/Source/CMSIS_RTOS/cmsis_os.c ****   ******************************************************************************
  58:Middlewares/Third_Party/FreeRTOS/Source/CMSIS_RTOS/cmsis_os.c ****   * @file    cmsis_os.c
  59:Middlewares/Third_Party/FreeRTOS/Source/CMSIS_RTOS/cmsis_os.c ****   * @author  MCD Application Team
  60:Middlewares/Third_Party/FreeRTOS/Source/CMSIS_RTOS/cmsis_os.c ****   * @date    03-March-2017
  61:Middlewares/Third_Party/FreeRTOS/Source/CMSIS_RTOS/cmsis_os.c ****   * @brief   CMSIS-RTOS API implementation for FreeRTOS V9.0.0
  62:Middlewares/Third_Party/FreeRTOS/Source/CMSIS_RTOS/cmsis_os.c ****   ******************************************************************************
  63:Middlewares/Third_Party/FreeRTOS/Source/CMSIS_RTOS/cmsis_os.c ****   * @attention
  64:Middlewares/Third_Party/FreeRTOS/Source/CMSIS_RTOS/cmsis_os.c ****   *
  65:Middlewares/Third_Party/FreeRTOS/Source/CMSIS_RTOS/cmsis_os.c ****   * Redistribution and use in source and binary forms, with or without 
  66:Middlewares/Third_Party/FreeRTOS/Source/CMSIS_RTOS/cmsis_os.c ****   * modification, are permitted, provided that the following conditions are met:
  67:Middlewares/Third_Party/FreeRTOS/Source/CMSIS_RTOS/cmsis_os.c ****   *
  68:Middlewares/Third_Party/FreeRTOS/Source/CMSIS_RTOS/cmsis_os.c ****   * 1. Redistribution of source code must retain the above copyright notice, 
  69:Middlewares/Third_Party/FreeRTOS/Source/CMSIS_RTOS/cmsis_os.c ****   *    this list of conditions and the following disclaimer.
  70:Middlewares/Third_Party/FreeRTOS/Source/CMSIS_RTOS/cmsis_os.c ****   * 2. Redistributions in binary form must reproduce the above copyright notice,
  71:Middlewares/Third_Party/FreeRTOS/Source/CMSIS_RTOS/cmsis_os.c ****   *    this list of conditions and the following disclaimer in the documentation
  72:Middlewares/Third_Party/FreeRTOS/Source/CMSIS_RTOS/cmsis_os.c ****   *    and/or other materials provided with the distribution.
  73:Middlewares/Third_Party/FreeRTOS/Source/CMSIS_RTOS/cmsis_os.c ****   * 3. Neither the name of STMicroelectronics nor the names of other 
  74:Middlewares/Third_Party/FreeRTOS/Source/CMSIS_RTOS/cmsis_os.c ****   *    contributors to this software may be used to endorse or promote products 
  75:Middlewares/Third_Party/FreeRTOS/Source/CMSIS_RTOS/cmsis_os.c ****   *    derived from this software without specific written permission.
  76:Middlewares/Third_Party/FreeRTOS/Source/CMSIS_RTOS/cmsis_os.c ****   * 4. This software, including modifications and/or derivative works of this 
  77:Middlewares/Third_Party/FreeRTOS/Source/CMSIS_RTOS/cmsis_os.c ****   *    software, must execute solely and exclusively on microcontroller or
  78:Middlewares/Third_Party/FreeRTOS/Source/CMSIS_RTOS/cmsis_os.c ****   *    microprocessor devices manufactured by or for STMicroelectronics.
  79:Middlewares/Third_Party/FreeRTOS/Source/CMSIS_RTOS/cmsis_os.c ****   * 5. Redistribution and use of this software other than as permitted under 
  80:Middlewares/Third_Party/FreeRTOS/Source/CMSIS_RTOS/cmsis_os.c ****   *    this license is void and will automatically terminate your rights under 
  81:Middlewares/Third_Party/FreeRTOS/Source/CMSIS_RTOS/cmsis_os.c ****   *    this license. 
  82:Middlewares/Third_Party/FreeRTOS/Source/CMSIS_RTOS/cmsis_os.c ****   *
  83:Middlewares/Third_Party/FreeRTOS/Source/CMSIS_RTOS/cmsis_os.c ****   * THIS SOFTWARE IS PROVIDED BY STMICROELECTRONICS AND CONTRIBUTORS "AS IS" 
  84:Middlewares/Third_Party/FreeRTOS/Source/CMSIS_RTOS/cmsis_os.c ****   * AND ANY EXPRESS, IMPLIED OR STATUTORY WARRANTIES, INCLUDING, BUT NOT 
  85:Middlewares/Third_Party/FreeRTOS/Source/CMSIS_RTOS/cmsis_os.c ****   * LIMITED TO, THE IMPLIED WARRANTIES OF MERCHANTABILITY, FITNESS FOR A 
  86:Middlewares/Third_Party/FreeRTOS/Source/CMSIS_RTOS/cmsis_os.c ****   * PARTICULAR PURPOSE AND NON-INFRINGEMENT OF THIRD PARTY INTELLECTUAL PROPERTY
  87:Middlewares/Third_Party/FreeRTOS/Source/CMSIS_RTOS/cmsis_os.c ****   * RIGHTS ARE DISCLAIMED TO THE FULLEST EXTENT PERMITTED BY LAW. IN NO EVENT 
ARM GAS  C:\Users\ALEX'S~1\AppData\Local\Temp\ccjCNn9l.s 			page 3


  88:Middlewares/Third_Party/FreeRTOS/Source/CMSIS_RTOS/cmsis_os.c ****   * SHALL STMICROELECTRONICS OR CONTRIBUTORS BE LIABLE FOR ANY DIRECT, INDIRECT,
  89:Middlewares/Third_Party/FreeRTOS/Source/CMSIS_RTOS/cmsis_os.c ****   * INCIDENTAL, SPECIAL, EXEMPLARY, OR CONSEQUENTIAL DAMAGES (INCLUDING, BUT NOT
  90:Middlewares/Third_Party/FreeRTOS/Source/CMSIS_RTOS/cmsis_os.c ****   * LIMITED TO, PROCUREMENT OF SUBSTITUTE GOODS OR SERVICES; LOSS OF USE, DATA, 
  91:Middlewares/Third_Party/FreeRTOS/Source/CMSIS_RTOS/cmsis_os.c ****   * OR PROFITS; OR BUSINESS INTERRUPTION) HOWEVER CAUSED AND ON ANY THEORY OF 
  92:Middlewares/Third_Party/FreeRTOS/Source/CMSIS_RTOS/cmsis_os.c ****   * LIABILITY, WHETHER IN CONTRACT, STRICT LIABILITY, OR TORT (INCLUDING 
  93:Middlewares/Third_Party/FreeRTOS/Source/CMSIS_RTOS/cmsis_os.c ****   * NEGLIGENCE OR OTHERWISE) ARISING IN ANY WAY OUT OF THE USE OF THIS SOFTWARE,
  94:Middlewares/Third_Party/FreeRTOS/Source/CMSIS_RTOS/cmsis_os.c ****   * EVEN IF ADVISED OF THE POSSIBILITY OF SUCH DAMAGE.
  95:Middlewares/Third_Party/FreeRTOS/Source/CMSIS_RTOS/cmsis_os.c ****   *
  96:Middlewares/Third_Party/FreeRTOS/Source/CMSIS_RTOS/cmsis_os.c ****   ******************************************************************************
  97:Middlewares/Third_Party/FreeRTOS/Source/CMSIS_RTOS/cmsis_os.c ****   */ 
  98:Middlewares/Third_Party/FreeRTOS/Source/CMSIS_RTOS/cmsis_os.c **** 
  99:Middlewares/Third_Party/FreeRTOS/Source/CMSIS_RTOS/cmsis_os.c **** #include <string.h>
 100:Middlewares/Third_Party/FreeRTOS/Source/CMSIS_RTOS/cmsis_os.c **** #include "cmsis_os.h"
 101:Middlewares/Third_Party/FreeRTOS/Source/CMSIS_RTOS/cmsis_os.c **** 
 102:Middlewares/Third_Party/FreeRTOS/Source/CMSIS_RTOS/cmsis_os.c **** /*
 103:Middlewares/Third_Party/FreeRTOS/Source/CMSIS_RTOS/cmsis_os.c ****  * ARM Compiler 4/5
 104:Middlewares/Third_Party/FreeRTOS/Source/CMSIS_RTOS/cmsis_os.c ****  */
 105:Middlewares/Third_Party/FreeRTOS/Source/CMSIS_RTOS/cmsis_os.c **** #if   defined ( __CC_ARM )
 106:Middlewares/Third_Party/FreeRTOS/Source/CMSIS_RTOS/cmsis_os.c **** 
 107:Middlewares/Third_Party/FreeRTOS/Source/CMSIS_RTOS/cmsis_os.c ****   #define __ASM            __asm                                      
 108:Middlewares/Third_Party/FreeRTOS/Source/CMSIS_RTOS/cmsis_os.c ****   #define __INLINE         __inline                                     
 109:Middlewares/Third_Party/FreeRTOS/Source/CMSIS_RTOS/cmsis_os.c ****   #define __STATIC_INLINE  static __inline
 110:Middlewares/Third_Party/FreeRTOS/Source/CMSIS_RTOS/cmsis_os.c ****   #include "cmsis_armcc.h"
 111:Middlewares/Third_Party/FreeRTOS/Source/CMSIS_RTOS/cmsis_os.c **** 
 112:Middlewares/Third_Party/FreeRTOS/Source/CMSIS_RTOS/cmsis_os.c **** /*
 113:Middlewares/Third_Party/FreeRTOS/Source/CMSIS_RTOS/cmsis_os.c ****  * GNU Compiler
 114:Middlewares/Third_Party/FreeRTOS/Source/CMSIS_RTOS/cmsis_os.c ****  */
 115:Middlewares/Third_Party/FreeRTOS/Source/CMSIS_RTOS/cmsis_os.c **** #elif defined ( __GNUC__ )
 116:Middlewares/Third_Party/FreeRTOS/Source/CMSIS_RTOS/cmsis_os.c **** 
 117:Middlewares/Third_Party/FreeRTOS/Source/CMSIS_RTOS/cmsis_os.c ****   #define __ASM            __asm                                      /*!< asm keyword for GNU Comp
 118:Middlewares/Third_Party/FreeRTOS/Source/CMSIS_RTOS/cmsis_os.c ****   #define __INLINE         inline                                     /*!< inline keyword for GNU C
 119:Middlewares/Third_Party/FreeRTOS/Source/CMSIS_RTOS/cmsis_os.c ****   #define __STATIC_INLINE  static inline
 120:Middlewares/Third_Party/FreeRTOS/Source/CMSIS_RTOS/cmsis_os.c **** 
 121:Middlewares/Third_Party/FreeRTOS/Source/CMSIS_RTOS/cmsis_os.c **** 
 122:Middlewares/Third_Party/FreeRTOS/Source/CMSIS_RTOS/cmsis_os.c ****   #include "cmsis_gcc.h"
 123:Middlewares/Third_Party/FreeRTOS/Source/CMSIS_RTOS/cmsis_os.c **** 
 124:Middlewares/Third_Party/FreeRTOS/Source/CMSIS_RTOS/cmsis_os.c **** 
 125:Middlewares/Third_Party/FreeRTOS/Source/CMSIS_RTOS/cmsis_os.c **** /*
 126:Middlewares/Third_Party/FreeRTOS/Source/CMSIS_RTOS/cmsis_os.c ****  * IAR Compiler
 127:Middlewares/Third_Party/FreeRTOS/Source/CMSIS_RTOS/cmsis_os.c ****  */
 128:Middlewares/Third_Party/FreeRTOS/Source/CMSIS_RTOS/cmsis_os.c **** #elif defined ( __ICCARM__ )
 129:Middlewares/Third_Party/FreeRTOS/Source/CMSIS_RTOS/cmsis_os.c **** 
 130:Middlewares/Third_Party/FreeRTOS/Source/CMSIS_RTOS/cmsis_os.c ****   #ifndef   __ASM
 131:Middlewares/Third_Party/FreeRTOS/Source/CMSIS_RTOS/cmsis_os.c ****     #define __ASM                     __asm
 132:Middlewares/Third_Party/FreeRTOS/Source/CMSIS_RTOS/cmsis_os.c ****   #endif
 133:Middlewares/Third_Party/FreeRTOS/Source/CMSIS_RTOS/cmsis_os.c ****   #ifndef   __INLINE
 134:Middlewares/Third_Party/FreeRTOS/Source/CMSIS_RTOS/cmsis_os.c ****     #define __INLINE                  inline
 135:Middlewares/Third_Party/FreeRTOS/Source/CMSIS_RTOS/cmsis_os.c ****   #endif
 136:Middlewares/Third_Party/FreeRTOS/Source/CMSIS_RTOS/cmsis_os.c ****   #ifndef   __STATIC_INLINE
 137:Middlewares/Third_Party/FreeRTOS/Source/CMSIS_RTOS/cmsis_os.c ****     #define __STATIC_INLINE           static inline
 138:Middlewares/Third_Party/FreeRTOS/Source/CMSIS_RTOS/cmsis_os.c ****   #endif
 139:Middlewares/Third_Party/FreeRTOS/Source/CMSIS_RTOS/cmsis_os.c **** 
 140:Middlewares/Third_Party/FreeRTOS/Source/CMSIS_RTOS/cmsis_os.c ****   #include <cmsis_iar.h>
 141:Middlewares/Third_Party/FreeRTOS/Source/CMSIS_RTOS/cmsis_os.c **** #endif
 142:Middlewares/Third_Party/FreeRTOS/Source/CMSIS_RTOS/cmsis_os.c **** 
 143:Middlewares/Third_Party/FreeRTOS/Source/CMSIS_RTOS/cmsis_os.c **** extern void xPortSysTickHandler(void);
 144:Middlewares/Third_Party/FreeRTOS/Source/CMSIS_RTOS/cmsis_os.c **** 
ARM GAS  C:\Users\ALEX'S~1\AppData\Local\Temp\ccjCNn9l.s 			page 4


 145:Middlewares/Third_Party/FreeRTOS/Source/CMSIS_RTOS/cmsis_os.c **** /* Convert from CMSIS type osPriority to FreeRTOS priority number */
 146:Middlewares/Third_Party/FreeRTOS/Source/CMSIS_RTOS/cmsis_os.c **** static unsigned portBASE_TYPE makeFreeRtosPriority (osPriority priority)
 147:Middlewares/Third_Party/FreeRTOS/Source/CMSIS_RTOS/cmsis_os.c **** {
 148:Middlewares/Third_Party/FreeRTOS/Source/CMSIS_RTOS/cmsis_os.c ****   unsigned portBASE_TYPE fpriority = tskIDLE_PRIORITY;
 149:Middlewares/Third_Party/FreeRTOS/Source/CMSIS_RTOS/cmsis_os.c ****   
 150:Middlewares/Third_Party/FreeRTOS/Source/CMSIS_RTOS/cmsis_os.c ****   if (priority != osPriorityError) {
 151:Middlewares/Third_Party/FreeRTOS/Source/CMSIS_RTOS/cmsis_os.c ****     fpriority += (priority - osPriorityIdle);
 152:Middlewares/Third_Party/FreeRTOS/Source/CMSIS_RTOS/cmsis_os.c ****   }
 153:Middlewares/Third_Party/FreeRTOS/Source/CMSIS_RTOS/cmsis_os.c ****   
 154:Middlewares/Third_Party/FreeRTOS/Source/CMSIS_RTOS/cmsis_os.c ****   return fpriority;
 155:Middlewares/Third_Party/FreeRTOS/Source/CMSIS_RTOS/cmsis_os.c **** }
 156:Middlewares/Third_Party/FreeRTOS/Source/CMSIS_RTOS/cmsis_os.c **** 
 157:Middlewares/Third_Party/FreeRTOS/Source/CMSIS_RTOS/cmsis_os.c **** #if (INCLUDE_uxTaskPriorityGet == 1)
 158:Middlewares/Third_Party/FreeRTOS/Source/CMSIS_RTOS/cmsis_os.c **** /* Convert from FreeRTOS priority number to CMSIS type osPriority */
 159:Middlewares/Third_Party/FreeRTOS/Source/CMSIS_RTOS/cmsis_os.c **** static osPriority makeCmsisPriority (unsigned portBASE_TYPE fpriority)
 160:Middlewares/Third_Party/FreeRTOS/Source/CMSIS_RTOS/cmsis_os.c **** {
 161:Middlewares/Third_Party/FreeRTOS/Source/CMSIS_RTOS/cmsis_os.c ****   osPriority priority = osPriorityError;
 162:Middlewares/Third_Party/FreeRTOS/Source/CMSIS_RTOS/cmsis_os.c ****   
 163:Middlewares/Third_Party/FreeRTOS/Source/CMSIS_RTOS/cmsis_os.c ****   if ((fpriority - tskIDLE_PRIORITY) <= (osPriorityRealtime - osPriorityIdle)) {
 164:Middlewares/Third_Party/FreeRTOS/Source/CMSIS_RTOS/cmsis_os.c ****     priority = (osPriority)((int)osPriorityIdle + (int)(fpriority - tskIDLE_PRIORITY));
 165:Middlewares/Third_Party/FreeRTOS/Source/CMSIS_RTOS/cmsis_os.c ****   }
 166:Middlewares/Third_Party/FreeRTOS/Source/CMSIS_RTOS/cmsis_os.c ****   
 167:Middlewares/Third_Party/FreeRTOS/Source/CMSIS_RTOS/cmsis_os.c ****   return priority;
 168:Middlewares/Third_Party/FreeRTOS/Source/CMSIS_RTOS/cmsis_os.c **** }
 169:Middlewares/Third_Party/FreeRTOS/Source/CMSIS_RTOS/cmsis_os.c **** #endif
 170:Middlewares/Third_Party/FreeRTOS/Source/CMSIS_RTOS/cmsis_os.c **** 
 171:Middlewares/Third_Party/FreeRTOS/Source/CMSIS_RTOS/cmsis_os.c **** 
 172:Middlewares/Third_Party/FreeRTOS/Source/CMSIS_RTOS/cmsis_os.c **** /* Determine whether we are in thread mode or handler mode. */
 173:Middlewares/Third_Party/FreeRTOS/Source/CMSIS_RTOS/cmsis_os.c **** static int inHandlerMode (void)
 174:Middlewares/Third_Party/FreeRTOS/Source/CMSIS_RTOS/cmsis_os.c **** {
 175:Middlewares/Third_Party/FreeRTOS/Source/CMSIS_RTOS/cmsis_os.c ****   return __get_IPSR() != 0;
 176:Middlewares/Third_Party/FreeRTOS/Source/CMSIS_RTOS/cmsis_os.c **** }
 177:Middlewares/Third_Party/FreeRTOS/Source/CMSIS_RTOS/cmsis_os.c **** 
 178:Middlewares/Third_Party/FreeRTOS/Source/CMSIS_RTOS/cmsis_os.c **** /*********************** Kernel Control Functions *****************************/
 179:Middlewares/Third_Party/FreeRTOS/Source/CMSIS_RTOS/cmsis_os.c **** /**
 180:Middlewares/Third_Party/FreeRTOS/Source/CMSIS_RTOS/cmsis_os.c **** * @brief  Initialize the RTOS Kernel for creating objects.
 181:Middlewares/Third_Party/FreeRTOS/Source/CMSIS_RTOS/cmsis_os.c **** * @retval status code that indicates the execution status of the function.
 182:Middlewares/Third_Party/FreeRTOS/Source/CMSIS_RTOS/cmsis_os.c **** * @note   MUST REMAIN UNCHANGED: \b osKernelInitialize shall be consistent in every CMSIS-RTOS.
 183:Middlewares/Third_Party/FreeRTOS/Source/CMSIS_RTOS/cmsis_os.c **** */
 184:Middlewares/Third_Party/FreeRTOS/Source/CMSIS_RTOS/cmsis_os.c **** osStatus osKernelInitialize (void);
 185:Middlewares/Third_Party/FreeRTOS/Source/CMSIS_RTOS/cmsis_os.c **** 
 186:Middlewares/Third_Party/FreeRTOS/Source/CMSIS_RTOS/cmsis_os.c **** /**
 187:Middlewares/Third_Party/FreeRTOS/Source/CMSIS_RTOS/cmsis_os.c **** * @brief  Start the RTOS Kernel with executing the specified thread.
 188:Middlewares/Third_Party/FreeRTOS/Source/CMSIS_RTOS/cmsis_os.c **** * @param  thread_def    thread definition referenced with \ref osThread.
 189:Middlewares/Third_Party/FreeRTOS/Source/CMSIS_RTOS/cmsis_os.c **** * @param  argument      pointer that is passed to the thread function as start argument.
 190:Middlewares/Third_Party/FreeRTOS/Source/CMSIS_RTOS/cmsis_os.c **** * @retval status code that indicates the execution status of the function
 191:Middlewares/Third_Party/FreeRTOS/Source/CMSIS_RTOS/cmsis_os.c **** * @note   MUST REMAIN UNCHANGED: \b osKernelStart shall be consistent in every CMSIS-RTOS.
 192:Middlewares/Third_Party/FreeRTOS/Source/CMSIS_RTOS/cmsis_os.c **** */
 193:Middlewares/Third_Party/FreeRTOS/Source/CMSIS_RTOS/cmsis_os.c **** osStatus osKernelStart (void)
 194:Middlewares/Third_Party/FreeRTOS/Source/CMSIS_RTOS/cmsis_os.c **** {
  29              		.loc 1 194 0
  30              		.cfi_startproc
  31              		@ args = 0, pretend = 0, frame = 0
  32              		@ frame_needed = 0, uses_anonymous_args = 0
  33 0000 08B5     		push	{r3, lr}
  34              	.LCFI0:
  35              		.cfi_def_cfa_offset 8
ARM GAS  C:\Users\ALEX'S~1\AppData\Local\Temp\ccjCNn9l.s 			page 5


  36              		.cfi_offset 3, -8
  37              		.cfi_offset 14, -4
 195:Middlewares/Third_Party/FreeRTOS/Source/CMSIS_RTOS/cmsis_os.c ****   vTaskStartScheduler();
  38              		.loc 1 195 0
  39 0002 FFF7FEFF 		bl	vTaskStartScheduler
  40              	.LVL0:
 196:Middlewares/Third_Party/FreeRTOS/Source/CMSIS_RTOS/cmsis_os.c ****   
 197:Middlewares/Third_Party/FreeRTOS/Source/CMSIS_RTOS/cmsis_os.c ****   return osOK;
 198:Middlewares/Third_Party/FreeRTOS/Source/CMSIS_RTOS/cmsis_os.c **** }
  41              		.loc 1 198 0
  42 0006 0020     		movs	r0, #0
  43 0008 08BD     		pop	{r3, pc}
  44              		.cfi_endproc
  45              	.LFE33:
  47 000a 00BF     		.section	.text.osKernelRunning,"ax",%progbits
  48              		.align	1
  49              		.p2align 2,,3
  50              		.global	osKernelRunning
  51              		.syntax unified
  52              		.thumb
  53              		.thumb_func
  54              		.fpu fpv4-sp-d16
  56              	osKernelRunning:
  57              	.LFB34:
 199:Middlewares/Third_Party/FreeRTOS/Source/CMSIS_RTOS/cmsis_os.c **** 
 200:Middlewares/Third_Party/FreeRTOS/Source/CMSIS_RTOS/cmsis_os.c **** /**
 201:Middlewares/Third_Party/FreeRTOS/Source/CMSIS_RTOS/cmsis_os.c **** * @brief  Check if the RTOS kernel is already started
 202:Middlewares/Third_Party/FreeRTOS/Source/CMSIS_RTOS/cmsis_os.c **** * @param  None
 203:Middlewares/Third_Party/FreeRTOS/Source/CMSIS_RTOS/cmsis_os.c **** * @retval (0) RTOS is not started
 204:Middlewares/Third_Party/FreeRTOS/Source/CMSIS_RTOS/cmsis_os.c **** *         (1) RTOS is started
 205:Middlewares/Third_Party/FreeRTOS/Source/CMSIS_RTOS/cmsis_os.c **** *         (-1) if this feature is disabled in FreeRTOSConfig.h 
 206:Middlewares/Third_Party/FreeRTOS/Source/CMSIS_RTOS/cmsis_os.c **** * @note  MUST REMAIN UNCHANGED: \b osKernelRunning shall be consistent in every CMSIS-RTOS.
 207:Middlewares/Third_Party/FreeRTOS/Source/CMSIS_RTOS/cmsis_os.c **** */
 208:Middlewares/Third_Party/FreeRTOS/Source/CMSIS_RTOS/cmsis_os.c **** int32_t osKernelRunning(void)
 209:Middlewares/Third_Party/FreeRTOS/Source/CMSIS_RTOS/cmsis_os.c **** {
  58              		.loc 1 209 0
  59              		.cfi_startproc
  60              		@ args = 0, pretend = 0, frame = 0
  61              		@ frame_needed = 0, uses_anonymous_args = 0
  62 0000 08B5     		push	{r3, lr}
  63              	.LCFI1:
  64              		.cfi_def_cfa_offset 8
  65              		.cfi_offset 3, -8
  66              		.cfi_offset 14, -4
 210:Middlewares/Third_Party/FreeRTOS/Source/CMSIS_RTOS/cmsis_os.c **** #if ( ( INCLUDE_xTaskGetSchedulerState == 1 ) || ( configUSE_TIMERS == 1 ) )
 211:Middlewares/Third_Party/FreeRTOS/Source/CMSIS_RTOS/cmsis_os.c ****   if (xTaskGetSchedulerState() == taskSCHEDULER_NOT_STARTED)
  67              		.loc 1 211 0
  68 0002 FFF7FEFF 		bl	xTaskGetSchedulerState
  69              	.LVL1:
 212:Middlewares/Third_Party/FreeRTOS/Source/CMSIS_RTOS/cmsis_os.c ****     return 0;
 213:Middlewares/Third_Party/FreeRTOS/Source/CMSIS_RTOS/cmsis_os.c ****   else
 214:Middlewares/Third_Party/FreeRTOS/Source/CMSIS_RTOS/cmsis_os.c ****     return 1;
 215:Middlewares/Third_Party/FreeRTOS/Source/CMSIS_RTOS/cmsis_os.c **** #else
 216:Middlewares/Third_Party/FreeRTOS/Source/CMSIS_RTOS/cmsis_os.c **** 	return (-1);
 217:Middlewares/Third_Party/FreeRTOS/Source/CMSIS_RTOS/cmsis_os.c **** #endif	
 218:Middlewares/Third_Party/FreeRTOS/Source/CMSIS_RTOS/cmsis_os.c **** }
  70              		.loc 1 218 0
ARM GAS  C:\Users\ALEX'S~1\AppData\Local\Temp\ccjCNn9l.s 			page 6


  71 0006 10F1FF30 		adds	r0, r0, #-1
  72 000a 18BF     		it	ne
  73 000c 0120     		movne	r0, #1
  74 000e 08BD     		pop	{r3, pc}
  75              		.cfi_endproc
  76              	.LFE34:
  78              		.section	.text.osKernelSysTick,"ax",%progbits
  79              		.align	1
  80              		.p2align 2,,3
  81              		.global	osKernelSysTick
  82              		.syntax unified
  83              		.thumb
  84              		.thumb_func
  85              		.fpu fpv4-sp-d16
  87              	osKernelSysTick:
  88              	.LFB35:
 219:Middlewares/Third_Party/FreeRTOS/Source/CMSIS_RTOS/cmsis_os.c **** 
 220:Middlewares/Third_Party/FreeRTOS/Source/CMSIS_RTOS/cmsis_os.c **** #if (defined (osFeature_SysTick)  &&  (osFeature_SysTick != 0))     // System Timer available
 221:Middlewares/Third_Party/FreeRTOS/Source/CMSIS_RTOS/cmsis_os.c **** /**
 222:Middlewares/Third_Party/FreeRTOS/Source/CMSIS_RTOS/cmsis_os.c **** * @brief  Get the value of the Kernel SysTick timer
 223:Middlewares/Third_Party/FreeRTOS/Source/CMSIS_RTOS/cmsis_os.c **** * @param  None
 224:Middlewares/Third_Party/FreeRTOS/Source/CMSIS_RTOS/cmsis_os.c **** * @retval None
 225:Middlewares/Third_Party/FreeRTOS/Source/CMSIS_RTOS/cmsis_os.c **** * @note   MUST REMAIN UNCHANGED: \b osKernelSysTick shall be consistent in every CMSIS-RTOS.
 226:Middlewares/Third_Party/FreeRTOS/Source/CMSIS_RTOS/cmsis_os.c **** */
 227:Middlewares/Third_Party/FreeRTOS/Source/CMSIS_RTOS/cmsis_os.c **** uint32_t osKernelSysTick(void)
 228:Middlewares/Third_Party/FreeRTOS/Source/CMSIS_RTOS/cmsis_os.c **** {
  89              		.loc 1 228 0
  90              		.cfi_startproc
  91              		@ args = 0, pretend = 0, frame = 0
  92              		@ frame_needed = 0, uses_anonymous_args = 0
  93              		@ link register save eliminated.
  94              	.LBB100:
  95              	.LBB101:
  96              	.LBB102:
  97              		.file 2 "Drivers/CMSIS/Include/cmsis_gcc.h"
   1:Drivers/CMSIS/Include/cmsis_gcc.h **** /**************************************************************************//**
   2:Drivers/CMSIS/Include/cmsis_gcc.h ****  * @file     cmsis_gcc.h
   3:Drivers/CMSIS/Include/cmsis_gcc.h ****  * @brief    CMSIS Cortex-M Core Function/Instruction Header File
   4:Drivers/CMSIS/Include/cmsis_gcc.h ****  * @version  V4.30
   5:Drivers/CMSIS/Include/cmsis_gcc.h ****  * @date     20. October 2015
   6:Drivers/CMSIS/Include/cmsis_gcc.h ****  ******************************************************************************/
   7:Drivers/CMSIS/Include/cmsis_gcc.h **** /* Copyright (c) 2009 - 2015 ARM LIMITED
   8:Drivers/CMSIS/Include/cmsis_gcc.h **** 
   9:Drivers/CMSIS/Include/cmsis_gcc.h ****    All rights reserved.
  10:Drivers/CMSIS/Include/cmsis_gcc.h ****    Redistribution and use in source and binary forms, with or without
  11:Drivers/CMSIS/Include/cmsis_gcc.h ****    modification, are permitted provided that the following conditions are met:
  12:Drivers/CMSIS/Include/cmsis_gcc.h ****    - Redistributions of source code must retain the above copyright
  13:Drivers/CMSIS/Include/cmsis_gcc.h ****      notice, this list of conditions and the following disclaimer.
  14:Drivers/CMSIS/Include/cmsis_gcc.h ****    - Redistributions in binary form must reproduce the above copyright
  15:Drivers/CMSIS/Include/cmsis_gcc.h ****      notice, this list of conditions and the following disclaimer in the
  16:Drivers/CMSIS/Include/cmsis_gcc.h ****      documentation and/or other materials provided with the distribution.
  17:Drivers/CMSIS/Include/cmsis_gcc.h ****    - Neither the name of ARM nor the names of its contributors may be used
  18:Drivers/CMSIS/Include/cmsis_gcc.h ****      to endorse or promote products derived from this software without
  19:Drivers/CMSIS/Include/cmsis_gcc.h ****      specific prior written permission.
  20:Drivers/CMSIS/Include/cmsis_gcc.h ****    *
  21:Drivers/CMSIS/Include/cmsis_gcc.h ****    THIS SOFTWARE IS PROVIDED BY THE COPYRIGHT HOLDERS AND CONTRIBUTORS "AS IS"
  22:Drivers/CMSIS/Include/cmsis_gcc.h ****    AND ANY EXPRESS OR IMPLIED WARRANTIES, INCLUDING, BUT NOT LIMITED TO, THE
ARM GAS  C:\Users\ALEX'S~1\AppData\Local\Temp\ccjCNn9l.s 			page 7


  23:Drivers/CMSIS/Include/cmsis_gcc.h ****    IMPLIED WARRANTIES OF MERCHANTABILITY AND FITNESS FOR A PARTICULAR PURPOSE
  24:Drivers/CMSIS/Include/cmsis_gcc.h ****    ARE DISCLAIMED. IN NO EVENT SHALL COPYRIGHT HOLDERS AND CONTRIBUTORS BE
  25:Drivers/CMSIS/Include/cmsis_gcc.h ****    LIABLE FOR ANY DIRECT, INDIRECT, INCIDENTAL, SPECIAL, EXEMPLARY, OR
  26:Drivers/CMSIS/Include/cmsis_gcc.h ****    CONSEQUENTIAL DAMAGES (INCLUDING, BUT NOT LIMITED TO, PROCUREMENT OF
  27:Drivers/CMSIS/Include/cmsis_gcc.h ****    SUBSTITUTE GOODS OR SERVICES; LOSS OF USE, DATA, OR PROFITS; OR BUSINESS
  28:Drivers/CMSIS/Include/cmsis_gcc.h ****    INTERRUPTION) HOWEVER CAUSED AND ON ANY THEORY OF LIABILITY, WHETHER IN
  29:Drivers/CMSIS/Include/cmsis_gcc.h ****    CONTRACT, STRICT LIABILITY, OR TORT (INCLUDING NEGLIGENCE OR OTHERWISE)
  30:Drivers/CMSIS/Include/cmsis_gcc.h ****    ARISING IN ANY WAY OUT OF THE USE OF THIS SOFTWARE, EVEN IF ADVISED OF THE
  31:Drivers/CMSIS/Include/cmsis_gcc.h ****    POSSIBILITY OF SUCH DAMAGE.
  32:Drivers/CMSIS/Include/cmsis_gcc.h ****    ---------------------------------------------------------------------------*/
  33:Drivers/CMSIS/Include/cmsis_gcc.h **** 
  34:Drivers/CMSIS/Include/cmsis_gcc.h **** 
  35:Drivers/CMSIS/Include/cmsis_gcc.h **** #ifndef __CMSIS_GCC_H
  36:Drivers/CMSIS/Include/cmsis_gcc.h **** #define __CMSIS_GCC_H
  37:Drivers/CMSIS/Include/cmsis_gcc.h **** 
  38:Drivers/CMSIS/Include/cmsis_gcc.h **** /* ignore some GCC warnings */
  39:Drivers/CMSIS/Include/cmsis_gcc.h **** #if defined ( __GNUC__ )
  40:Drivers/CMSIS/Include/cmsis_gcc.h **** #pragma GCC diagnostic push
  41:Drivers/CMSIS/Include/cmsis_gcc.h **** #pragma GCC diagnostic ignored "-Wsign-conversion"
  42:Drivers/CMSIS/Include/cmsis_gcc.h **** #pragma GCC diagnostic ignored "-Wconversion"
  43:Drivers/CMSIS/Include/cmsis_gcc.h **** #pragma GCC diagnostic ignored "-Wunused-parameter"
  44:Drivers/CMSIS/Include/cmsis_gcc.h **** #endif
  45:Drivers/CMSIS/Include/cmsis_gcc.h **** 
  46:Drivers/CMSIS/Include/cmsis_gcc.h **** 
  47:Drivers/CMSIS/Include/cmsis_gcc.h **** /* ###########################  Core Function Access  ########################### */
  48:Drivers/CMSIS/Include/cmsis_gcc.h **** /** \ingroup  CMSIS_Core_FunctionInterface
  49:Drivers/CMSIS/Include/cmsis_gcc.h ****     \defgroup CMSIS_Core_RegAccFunctions CMSIS Core Register Access Functions
  50:Drivers/CMSIS/Include/cmsis_gcc.h ****   @{
  51:Drivers/CMSIS/Include/cmsis_gcc.h ****  */
  52:Drivers/CMSIS/Include/cmsis_gcc.h **** 
  53:Drivers/CMSIS/Include/cmsis_gcc.h **** /**
  54:Drivers/CMSIS/Include/cmsis_gcc.h ****   \brief   Enable IRQ Interrupts
  55:Drivers/CMSIS/Include/cmsis_gcc.h ****   \details Enables IRQ interrupts by clearing the I-bit in the CPSR.
  56:Drivers/CMSIS/Include/cmsis_gcc.h ****            Can only be executed in Privileged modes.
  57:Drivers/CMSIS/Include/cmsis_gcc.h ****  */
  58:Drivers/CMSIS/Include/cmsis_gcc.h **** __attribute__( ( always_inline ) ) __STATIC_INLINE void __enable_irq(void)
  59:Drivers/CMSIS/Include/cmsis_gcc.h **** {
  60:Drivers/CMSIS/Include/cmsis_gcc.h ****   __ASM volatile ("cpsie i" : : : "memory");
  61:Drivers/CMSIS/Include/cmsis_gcc.h **** }
  62:Drivers/CMSIS/Include/cmsis_gcc.h **** 
  63:Drivers/CMSIS/Include/cmsis_gcc.h **** 
  64:Drivers/CMSIS/Include/cmsis_gcc.h **** /**
  65:Drivers/CMSIS/Include/cmsis_gcc.h ****   \brief   Disable IRQ Interrupts
  66:Drivers/CMSIS/Include/cmsis_gcc.h ****   \details Disables IRQ interrupts by setting the I-bit in the CPSR.
  67:Drivers/CMSIS/Include/cmsis_gcc.h ****   Can only be executed in Privileged modes.
  68:Drivers/CMSIS/Include/cmsis_gcc.h ****  */
  69:Drivers/CMSIS/Include/cmsis_gcc.h **** __attribute__( ( always_inline ) ) __STATIC_INLINE void __disable_irq(void)
  70:Drivers/CMSIS/Include/cmsis_gcc.h **** {
  71:Drivers/CMSIS/Include/cmsis_gcc.h ****   __ASM volatile ("cpsid i" : : : "memory");
  72:Drivers/CMSIS/Include/cmsis_gcc.h **** }
  73:Drivers/CMSIS/Include/cmsis_gcc.h **** 
  74:Drivers/CMSIS/Include/cmsis_gcc.h **** 
  75:Drivers/CMSIS/Include/cmsis_gcc.h **** /**
  76:Drivers/CMSIS/Include/cmsis_gcc.h ****   \brief   Get Control Register
  77:Drivers/CMSIS/Include/cmsis_gcc.h ****   \details Returns the content of the Control Register.
  78:Drivers/CMSIS/Include/cmsis_gcc.h ****   \return               Control Register value
  79:Drivers/CMSIS/Include/cmsis_gcc.h ****  */
ARM GAS  C:\Users\ALEX'S~1\AppData\Local\Temp\ccjCNn9l.s 			page 8


  80:Drivers/CMSIS/Include/cmsis_gcc.h **** __attribute__( ( always_inline ) ) __STATIC_INLINE uint32_t __get_CONTROL(void)
  81:Drivers/CMSIS/Include/cmsis_gcc.h **** {
  82:Drivers/CMSIS/Include/cmsis_gcc.h ****   uint32_t result;
  83:Drivers/CMSIS/Include/cmsis_gcc.h **** 
  84:Drivers/CMSIS/Include/cmsis_gcc.h ****   __ASM volatile ("MRS %0, control" : "=r" (result) );
  85:Drivers/CMSIS/Include/cmsis_gcc.h ****   return(result);
  86:Drivers/CMSIS/Include/cmsis_gcc.h **** }
  87:Drivers/CMSIS/Include/cmsis_gcc.h **** 
  88:Drivers/CMSIS/Include/cmsis_gcc.h **** 
  89:Drivers/CMSIS/Include/cmsis_gcc.h **** /**
  90:Drivers/CMSIS/Include/cmsis_gcc.h ****   \brief   Set Control Register
  91:Drivers/CMSIS/Include/cmsis_gcc.h ****   \details Writes the given value to the Control Register.
  92:Drivers/CMSIS/Include/cmsis_gcc.h ****   \param [in]    control  Control Register value to set
  93:Drivers/CMSIS/Include/cmsis_gcc.h ****  */
  94:Drivers/CMSIS/Include/cmsis_gcc.h **** __attribute__( ( always_inline ) ) __STATIC_INLINE void __set_CONTROL(uint32_t control)
  95:Drivers/CMSIS/Include/cmsis_gcc.h **** {
  96:Drivers/CMSIS/Include/cmsis_gcc.h ****   __ASM volatile ("MSR control, %0" : : "r" (control) : "memory");
  97:Drivers/CMSIS/Include/cmsis_gcc.h **** }
  98:Drivers/CMSIS/Include/cmsis_gcc.h **** 
  99:Drivers/CMSIS/Include/cmsis_gcc.h **** 
 100:Drivers/CMSIS/Include/cmsis_gcc.h **** /**
 101:Drivers/CMSIS/Include/cmsis_gcc.h ****   \brief   Get IPSR Register
 102:Drivers/CMSIS/Include/cmsis_gcc.h ****   \details Returns the content of the IPSR Register.
 103:Drivers/CMSIS/Include/cmsis_gcc.h ****   \return               IPSR Register value
 104:Drivers/CMSIS/Include/cmsis_gcc.h ****  */
 105:Drivers/CMSIS/Include/cmsis_gcc.h **** __attribute__( ( always_inline ) ) __STATIC_INLINE uint32_t __get_IPSR(void)
 106:Drivers/CMSIS/Include/cmsis_gcc.h **** {
 107:Drivers/CMSIS/Include/cmsis_gcc.h ****   uint32_t result;
 108:Drivers/CMSIS/Include/cmsis_gcc.h **** 
 109:Drivers/CMSIS/Include/cmsis_gcc.h ****   __ASM volatile ("MRS %0, ipsr" : "=r" (result) );
  98              		.loc 2 109 0
  99              		.syntax unified
 100              	@ 109 "Drivers/CMSIS/Include/cmsis_gcc.h" 1
 101 0000 EFF30583 		MRS r3, ipsr
 102              	@ 0 "" 2
 103              		.thumb
 104              		.syntax unified
 105              	.LBE102:
 106              	.LBE101:
 107              	.LBE100:
 229:Middlewares/Third_Party/FreeRTOS/Source/CMSIS_RTOS/cmsis_os.c ****   if (inHandlerMode()) {
 108              		.loc 1 229 0
 109 0004 0BB9     		cbnz	r3, .L8
 230:Middlewares/Third_Party/FreeRTOS/Source/CMSIS_RTOS/cmsis_os.c ****     return xTaskGetTickCountFromISR();
 231:Middlewares/Third_Party/FreeRTOS/Source/CMSIS_RTOS/cmsis_os.c ****   }
 232:Middlewares/Third_Party/FreeRTOS/Source/CMSIS_RTOS/cmsis_os.c ****   else {
 233:Middlewares/Third_Party/FreeRTOS/Source/CMSIS_RTOS/cmsis_os.c ****     return xTaskGetTickCount();
 110              		.loc 1 233 0
 111 0006 FFF7FEBF 		b	xTaskGetTickCount
 112              	.LVL2:
 113              	.L8:
 230:Middlewares/Third_Party/FreeRTOS/Source/CMSIS_RTOS/cmsis_os.c ****     return xTaskGetTickCountFromISR();
 114              		.loc 1 230 0
 115 000a FFF7FEBF 		b	xTaskGetTickCountFromISR
 116              	.LVL3:
 117              		.cfi_endproc
 118              	.LFE35:
ARM GAS  C:\Users\ALEX'S~1\AppData\Local\Temp\ccjCNn9l.s 			page 9


 120 000e 00BF     		.section	.text.osThreadCreate,"ax",%progbits
 121              		.align	1
 122              		.p2align 2,,3
 123              		.global	osThreadCreate
 124              		.syntax unified
 125              		.thumb
 126              		.thumb_func
 127              		.fpu fpv4-sp-d16
 129              	osThreadCreate:
 130              	.LFB36:
 234:Middlewares/Third_Party/FreeRTOS/Source/CMSIS_RTOS/cmsis_os.c ****   }
 235:Middlewares/Third_Party/FreeRTOS/Source/CMSIS_RTOS/cmsis_os.c **** }
 236:Middlewares/Third_Party/FreeRTOS/Source/CMSIS_RTOS/cmsis_os.c **** #endif    // System Timer available
 237:Middlewares/Third_Party/FreeRTOS/Source/CMSIS_RTOS/cmsis_os.c **** /*********************** Thread Management *****************************/
 238:Middlewares/Third_Party/FreeRTOS/Source/CMSIS_RTOS/cmsis_os.c **** /**
 239:Middlewares/Third_Party/FreeRTOS/Source/CMSIS_RTOS/cmsis_os.c **** * @brief  Create a thread and add it to Active Threads and set it to state READY.
 240:Middlewares/Third_Party/FreeRTOS/Source/CMSIS_RTOS/cmsis_os.c **** * @param  thread_def    thread definition referenced with \ref osThread.
 241:Middlewares/Third_Party/FreeRTOS/Source/CMSIS_RTOS/cmsis_os.c **** * @param  argument      pointer that is passed to the thread function as start argument.
 242:Middlewares/Third_Party/FreeRTOS/Source/CMSIS_RTOS/cmsis_os.c **** * @retval thread ID for reference by other functions or NULL in case of error.
 243:Middlewares/Third_Party/FreeRTOS/Source/CMSIS_RTOS/cmsis_os.c **** * @note   MUST REMAIN UNCHANGED: \b osThreadCreate shall be consistent in every CMSIS-RTOS.
 244:Middlewares/Third_Party/FreeRTOS/Source/CMSIS_RTOS/cmsis_os.c **** */
 245:Middlewares/Third_Party/FreeRTOS/Source/CMSIS_RTOS/cmsis_os.c **** osThreadId osThreadCreate (const osThreadDef_t *thread_def, void *argument)
 246:Middlewares/Third_Party/FreeRTOS/Source/CMSIS_RTOS/cmsis_os.c **** {
 131              		.loc 1 246 0
 132              		.cfi_startproc
 133              		@ args = 0, pretend = 0, frame = 8
 134              		@ frame_needed = 0, uses_anonymous_args = 0
 135              	.LVL4:
 136 0000 30B5     		push	{r4, r5, lr}
 137              	.LCFI2:
 138              		.cfi_def_cfa_offset 12
 139              		.cfi_offset 4, -12
 140              		.cfi_offset 5, -8
 141              		.cfi_offset 14, -4
 247:Middlewares/Third_Party/FreeRTOS/Source/CMSIS_RTOS/cmsis_os.c ****   TaskHandle_t handle;
 248:Middlewares/Third_Party/FreeRTOS/Source/CMSIS_RTOS/cmsis_os.c ****   
 249:Middlewares/Third_Party/FreeRTOS/Source/CMSIS_RTOS/cmsis_os.c **** #if( configSUPPORT_STATIC_ALLOCATION == 1 ) &&  ( configSUPPORT_DYNAMIC_ALLOCATION == 1 )
 250:Middlewares/Third_Party/FreeRTOS/Source/CMSIS_RTOS/cmsis_os.c ****   if((thread_def->buffer != NULL) && (thread_def->controlblock != NULL)) {
 251:Middlewares/Third_Party/FreeRTOS/Source/CMSIS_RTOS/cmsis_os.c ****     handle = xTaskCreateStatic((TaskFunction_t)thread_def->pthread,(const portCHAR *)thread_def->na
 252:Middlewares/Third_Party/FreeRTOS/Source/CMSIS_RTOS/cmsis_os.c ****               thread_def->stacksize, argument, makeFreeRtosPriority(thread_def->tpriority),
 253:Middlewares/Third_Party/FreeRTOS/Source/CMSIS_RTOS/cmsis_os.c ****               thread_def->buffer, thread_def->controlblock);
 254:Middlewares/Third_Party/FreeRTOS/Source/CMSIS_RTOS/cmsis_os.c ****   }
 255:Middlewares/Third_Party/FreeRTOS/Source/CMSIS_RTOS/cmsis_os.c ****   else {
 256:Middlewares/Third_Party/FreeRTOS/Source/CMSIS_RTOS/cmsis_os.c ****     if (xTaskCreate((TaskFunction_t)thread_def->pthread,(const portCHAR *)thread_def->name,
 257:Middlewares/Third_Party/FreeRTOS/Source/CMSIS_RTOS/cmsis_os.c ****               thread_def->stacksize, argument, makeFreeRtosPriority(thread_def->tpriority),
 258:Middlewares/Third_Party/FreeRTOS/Source/CMSIS_RTOS/cmsis_os.c ****               &handle) != pdPASS)  {
 259:Middlewares/Third_Party/FreeRTOS/Source/CMSIS_RTOS/cmsis_os.c ****       return NULL;
 260:Middlewares/Third_Party/FreeRTOS/Source/CMSIS_RTOS/cmsis_os.c ****     } 
 261:Middlewares/Third_Party/FreeRTOS/Source/CMSIS_RTOS/cmsis_os.c ****   }
 262:Middlewares/Third_Party/FreeRTOS/Source/CMSIS_RTOS/cmsis_os.c **** #elif( configSUPPORT_STATIC_ALLOCATION == 1 )
 263:Middlewares/Third_Party/FreeRTOS/Source/CMSIS_RTOS/cmsis_os.c **** 
 264:Middlewares/Third_Party/FreeRTOS/Source/CMSIS_RTOS/cmsis_os.c ****     handle = xTaskCreateStatic((TaskFunction_t)thread_def->pthread,(const portCHAR *)thread_def->na
 265:Middlewares/Third_Party/FreeRTOS/Source/CMSIS_RTOS/cmsis_os.c ****               thread_def->stacksize, argument, makeFreeRtosPriority(thread_def->tpriority),
 266:Middlewares/Third_Party/FreeRTOS/Source/CMSIS_RTOS/cmsis_os.c ****               thread_def->buffer, thread_def->controlblock);
 267:Middlewares/Third_Party/FreeRTOS/Source/CMSIS_RTOS/cmsis_os.c **** #else
 268:Middlewares/Third_Party/FreeRTOS/Source/CMSIS_RTOS/cmsis_os.c ****   if (xTaskCreate((TaskFunction_t)thread_def->pthread,(const portCHAR *)thread_def->name,
 142              		.loc 1 268 0
ARM GAS  C:\Users\ALEX'S~1\AppData\Local\Temp\ccjCNn9l.s 			page 10


 143 0002 B0F90840 		ldrsh	r4, [r0, #8]
 144              	.LVL5:
 246:Middlewares/Third_Party/FreeRTOS/Source/CMSIS_RTOS/cmsis_os.c ****   TaskHandle_t handle;
 145              		.loc 1 246 0
 146 0006 85B0     		sub	sp, sp, #20
 147              	.LCFI3:
 148              		.cfi_def_cfa_offset 32
 149              	.LBB103:
 150              	.LBB104:
 150:Middlewares/Third_Party/FreeRTOS/Source/CMSIS_RTOS/cmsis_os.c ****     fpriority += (priority - osPriorityIdle);
 151              		.loc 1 150 0
 152 0008 842C     		cmp	r4, #132
 153              	.LBE104:
 154              	.LBE103:
 246:Middlewares/Third_Party/FreeRTOS/Source/CMSIS_RTOS/cmsis_os.c ****   TaskHandle_t handle;
 155              		.loc 1 246 0
 156 000a 0246     		mov	r2, r0
 157              	.LBB106:
 158              	.LBB105:
 151:Middlewares/Third_Party/FreeRTOS/Source/CMSIS_RTOS/cmsis_os.c ****   }
 159              		.loc 1 151 0
 160 000c 14BF     		ite	ne
 161 000e 0334     		addne	r4, r4, #3
 162              	.LVL6:
 148:Middlewares/Third_Party/FreeRTOS/Source/CMSIS_RTOS/cmsis_os.c ****   
 163              		.loc 1 148 0
 164 0010 0024     		moveq	r4, #0
 165              	.LBE105:
 166              	.LBE106:
 167              		.loc 1 268 0
 168 0012 03AD     		add	r5, sp, #12
 246:Middlewares/Third_Party/FreeRTOS/Source/CMSIS_RTOS/cmsis_os.c ****   TaskHandle_t handle;
 169              		.loc 1 246 0
 170 0014 0B46     		mov	r3, r1
 171              		.loc 1 268 0
 172 0016 4068     		ldr	r0, [r0, #4]
 173              	.LVL7:
 174 0018 1168     		ldr	r1, [r2]
 175              	.LVL8:
 176 001a 128A     		ldrh	r2, [r2, #16]
 177              	.LVL9:
 178 001c CDE90045 		strd	r4, r5, [sp]
 179 0020 FFF7FEFF 		bl	xTaskCreate
 180              	.LVL10:
 181 0024 0128     		cmp	r0, #1
 269:Middlewares/Third_Party/FreeRTOS/Source/CMSIS_RTOS/cmsis_os.c ****                    thread_def->stacksize, argument, makeFreeRtosPriority(thread_def->tpriority),
 270:Middlewares/Third_Party/FreeRTOS/Source/CMSIS_RTOS/cmsis_os.c ****                    &handle) != pdPASS)  {
 271:Middlewares/Third_Party/FreeRTOS/Source/CMSIS_RTOS/cmsis_os.c ****     return NULL;
 272:Middlewares/Third_Party/FreeRTOS/Source/CMSIS_RTOS/cmsis_os.c ****   }     
 273:Middlewares/Third_Party/FreeRTOS/Source/CMSIS_RTOS/cmsis_os.c **** #endif
 274:Middlewares/Third_Party/FreeRTOS/Source/CMSIS_RTOS/cmsis_os.c ****   
 275:Middlewares/Third_Party/FreeRTOS/Source/CMSIS_RTOS/cmsis_os.c ****   return handle;
 182              		.loc 1 275 0
 183 0026 0CBF     		ite	eq
 184 0028 0398     		ldreq	r0, [sp, #12]
 271:Middlewares/Third_Party/FreeRTOS/Source/CMSIS_RTOS/cmsis_os.c ****   }     
 185              		.loc 1 271 0
ARM GAS  C:\Users\ALEX'S~1\AppData\Local\Temp\ccjCNn9l.s 			page 11


 186 002a 0020     		movne	r0, #0
 276:Middlewares/Third_Party/FreeRTOS/Source/CMSIS_RTOS/cmsis_os.c **** }
 187              		.loc 1 276 0
 188 002c 05B0     		add	sp, sp, #20
 189              	.LCFI4:
 190              		.cfi_def_cfa_offset 12
 191              		@ sp needed
 192 002e 30BD     		pop	{r4, r5, pc}
 193              		.cfi_endproc
 194              	.LFE36:
 196              		.section	.text.osThreadGetId,"ax",%progbits
 197              		.align	1
 198              		.p2align 2,,3
 199              		.global	osThreadGetId
 200              		.syntax unified
 201              		.thumb
 202              		.thumb_func
 203              		.fpu fpv4-sp-d16
 205              	osThreadGetId:
 206              	.LFB37:
 277:Middlewares/Third_Party/FreeRTOS/Source/CMSIS_RTOS/cmsis_os.c **** 
 278:Middlewares/Third_Party/FreeRTOS/Source/CMSIS_RTOS/cmsis_os.c **** /**
 279:Middlewares/Third_Party/FreeRTOS/Source/CMSIS_RTOS/cmsis_os.c **** * @brief  Return the thread ID of the current running thread.
 280:Middlewares/Third_Party/FreeRTOS/Source/CMSIS_RTOS/cmsis_os.c **** * @retval thread ID for reference by other functions or NULL in case of error.
 281:Middlewares/Third_Party/FreeRTOS/Source/CMSIS_RTOS/cmsis_os.c **** * @note   MUST REMAIN UNCHANGED: \b osThreadGetId shall be consistent in every CMSIS-RTOS.
 282:Middlewares/Third_Party/FreeRTOS/Source/CMSIS_RTOS/cmsis_os.c **** */
 283:Middlewares/Third_Party/FreeRTOS/Source/CMSIS_RTOS/cmsis_os.c **** osThreadId osThreadGetId (void)
 284:Middlewares/Third_Party/FreeRTOS/Source/CMSIS_RTOS/cmsis_os.c **** {
 207              		.loc 1 284 0
 208              		.cfi_startproc
 209              		@ args = 0, pretend = 0, frame = 0
 210              		@ frame_needed = 0, uses_anonymous_args = 0
 211              		@ link register save eliminated.
 285:Middlewares/Third_Party/FreeRTOS/Source/CMSIS_RTOS/cmsis_os.c **** #if ( ( INCLUDE_xTaskGetCurrentTaskHandle == 1 ) || ( configUSE_MUTEXES == 1 ) )
 286:Middlewares/Third_Party/FreeRTOS/Source/CMSIS_RTOS/cmsis_os.c ****   return xTaskGetCurrentTaskHandle();
 212              		.loc 1 286 0
 213 0000 FFF7FEBF 		b	xTaskGetCurrentTaskHandle
 214              	.LVL11:
 215              		.cfi_endproc
 216              	.LFE37:
 218              		.section	.text.osThreadTerminate,"ax",%progbits
 219              		.align	1
 220              		.p2align 2,,3
 221              		.global	osThreadTerminate
 222              		.syntax unified
 223              		.thumb
 224              		.thumb_func
 225              		.fpu fpv4-sp-d16
 227              	osThreadTerminate:
 228              	.LFB38:
 287:Middlewares/Third_Party/FreeRTOS/Source/CMSIS_RTOS/cmsis_os.c **** #else
 288:Middlewares/Third_Party/FreeRTOS/Source/CMSIS_RTOS/cmsis_os.c **** 	return NULL;
 289:Middlewares/Third_Party/FreeRTOS/Source/CMSIS_RTOS/cmsis_os.c **** #endif
 290:Middlewares/Third_Party/FreeRTOS/Source/CMSIS_RTOS/cmsis_os.c **** }
 291:Middlewares/Third_Party/FreeRTOS/Source/CMSIS_RTOS/cmsis_os.c **** 
 292:Middlewares/Third_Party/FreeRTOS/Source/CMSIS_RTOS/cmsis_os.c **** /**
 293:Middlewares/Third_Party/FreeRTOS/Source/CMSIS_RTOS/cmsis_os.c **** * @brief  Terminate execution of a thread and remove it from Active Threads.
ARM GAS  C:\Users\ALEX'S~1\AppData\Local\Temp\ccjCNn9l.s 			page 12


 294:Middlewares/Third_Party/FreeRTOS/Source/CMSIS_RTOS/cmsis_os.c **** * @param   thread_id   thread ID obtained by \ref osThreadCreate or \ref osThreadGetId.
 295:Middlewares/Third_Party/FreeRTOS/Source/CMSIS_RTOS/cmsis_os.c **** * @retval  status code that indicates the execution status of the function.
 296:Middlewares/Third_Party/FreeRTOS/Source/CMSIS_RTOS/cmsis_os.c **** * @note   MUST REMAIN UNCHANGED: \b osThreadTerminate shall be consistent in every CMSIS-RTOS.
 297:Middlewares/Third_Party/FreeRTOS/Source/CMSIS_RTOS/cmsis_os.c **** */
 298:Middlewares/Third_Party/FreeRTOS/Source/CMSIS_RTOS/cmsis_os.c **** osStatus osThreadTerminate (osThreadId thread_id)
 299:Middlewares/Third_Party/FreeRTOS/Source/CMSIS_RTOS/cmsis_os.c **** {
 229              		.loc 1 299 0
 230              		.cfi_startproc
 231              		@ args = 0, pretend = 0, frame = 0
 232              		@ frame_needed = 0, uses_anonymous_args = 0
 233              	.LVL12:
 234 0000 08B5     		push	{r3, lr}
 235              	.LCFI5:
 236              		.cfi_def_cfa_offset 8
 237              		.cfi_offset 3, -8
 238              		.cfi_offset 14, -4
 300:Middlewares/Third_Party/FreeRTOS/Source/CMSIS_RTOS/cmsis_os.c **** #if (INCLUDE_vTaskDelete == 1)
 301:Middlewares/Third_Party/FreeRTOS/Source/CMSIS_RTOS/cmsis_os.c ****   vTaskDelete(thread_id);
 239              		.loc 1 301 0
 240 0002 FFF7FEFF 		bl	vTaskDelete
 241              	.LVL13:
 302:Middlewares/Third_Party/FreeRTOS/Source/CMSIS_RTOS/cmsis_os.c ****   return osOK;
 303:Middlewares/Third_Party/FreeRTOS/Source/CMSIS_RTOS/cmsis_os.c **** #else
 304:Middlewares/Third_Party/FreeRTOS/Source/CMSIS_RTOS/cmsis_os.c ****   return osErrorOS;
 305:Middlewares/Third_Party/FreeRTOS/Source/CMSIS_RTOS/cmsis_os.c **** #endif
 306:Middlewares/Third_Party/FreeRTOS/Source/CMSIS_RTOS/cmsis_os.c **** }
 242              		.loc 1 306 0
 243 0006 0020     		movs	r0, #0
 244 0008 08BD     		pop	{r3, pc}
 245              		.cfi_endproc
 246              	.LFE38:
 248 000a 00BF     		.section	.text.osThreadYield,"ax",%progbits
 249              		.align	1
 250              		.p2align 2,,3
 251              		.global	osThreadYield
 252              		.syntax unified
 253              		.thumb
 254              		.thumb_func
 255              		.fpu fpv4-sp-d16
 257              	osThreadYield:
 258              	.LFB39:
 307:Middlewares/Third_Party/FreeRTOS/Source/CMSIS_RTOS/cmsis_os.c **** 
 308:Middlewares/Third_Party/FreeRTOS/Source/CMSIS_RTOS/cmsis_os.c **** /**
 309:Middlewares/Third_Party/FreeRTOS/Source/CMSIS_RTOS/cmsis_os.c **** * @brief  Pass control to next thread that is in state \b READY.
 310:Middlewares/Third_Party/FreeRTOS/Source/CMSIS_RTOS/cmsis_os.c **** * @retval status code that indicates the execution status of the function.
 311:Middlewares/Third_Party/FreeRTOS/Source/CMSIS_RTOS/cmsis_os.c **** * @note   MUST REMAIN UNCHANGED: \b osThreadYield shall be consistent in every CMSIS-RTOS.
 312:Middlewares/Third_Party/FreeRTOS/Source/CMSIS_RTOS/cmsis_os.c **** */
 313:Middlewares/Third_Party/FreeRTOS/Source/CMSIS_RTOS/cmsis_os.c **** osStatus osThreadYield (void)
 314:Middlewares/Third_Party/FreeRTOS/Source/CMSIS_RTOS/cmsis_os.c **** {
 259              		.loc 1 314 0
 260              		.cfi_startproc
 261              		@ args = 0, pretend = 0, frame = 0
 262              		@ frame_needed = 0, uses_anonymous_args = 0
 263              		@ link register save eliminated.
 315:Middlewares/Third_Party/FreeRTOS/Source/CMSIS_RTOS/cmsis_os.c ****   taskYIELD();
 264              		.loc 1 315 0
 265 0000 044B     		ldr	r3, .L19
ARM GAS  C:\Users\ALEX'S~1\AppData\Local\Temp\ccjCNn9l.s 			page 13


 266 0002 4FF08052 		mov	r2, #268435456
 267 0006 1A60     		str	r2, [r3]
 268              		.syntax unified
 269              	@ 315 "Middlewares/Third_Party/FreeRTOS/Source/CMSIS_RTOS/cmsis_os.c" 1
 270 0008 BFF34F8F 		dsb
 271              	@ 0 "" 2
 272              	@ 315 "Middlewares/Third_Party/FreeRTOS/Source/CMSIS_RTOS/cmsis_os.c" 1
 273 000c BFF36F8F 		isb
 274              	@ 0 "" 2
 316:Middlewares/Third_Party/FreeRTOS/Source/CMSIS_RTOS/cmsis_os.c ****   
 317:Middlewares/Third_Party/FreeRTOS/Source/CMSIS_RTOS/cmsis_os.c ****   return osOK;
 318:Middlewares/Third_Party/FreeRTOS/Source/CMSIS_RTOS/cmsis_os.c **** }
 275              		.loc 1 318 0
 276              		.thumb
 277              		.syntax unified
 278 0010 0020     		movs	r0, #0
 279 0012 7047     		bx	lr
 280              	.L20:
 281              		.align	2
 282              	.L19:
 283 0014 04ED00E0 		.word	-536810236
 284              		.cfi_endproc
 285              	.LFE39:
 287              		.section	.text.osThreadSetPriority,"ax",%progbits
 288              		.align	1
 289              		.p2align 2,,3
 290              		.global	osThreadSetPriority
 291              		.syntax unified
 292              		.thumb
 293              		.thumb_func
 294              		.fpu fpv4-sp-d16
 296              	osThreadSetPriority:
 297              	.LFB40:
 319:Middlewares/Third_Party/FreeRTOS/Source/CMSIS_RTOS/cmsis_os.c **** 
 320:Middlewares/Third_Party/FreeRTOS/Source/CMSIS_RTOS/cmsis_os.c **** /**
 321:Middlewares/Third_Party/FreeRTOS/Source/CMSIS_RTOS/cmsis_os.c **** * @brief   Change priority of an active thread.
 322:Middlewares/Third_Party/FreeRTOS/Source/CMSIS_RTOS/cmsis_os.c **** * @param   thread_id     thread ID obtained by \ref osThreadCreate or \ref osThreadGetId.
 323:Middlewares/Third_Party/FreeRTOS/Source/CMSIS_RTOS/cmsis_os.c **** * @param   priority      new priority value for the thread function.
 324:Middlewares/Third_Party/FreeRTOS/Source/CMSIS_RTOS/cmsis_os.c **** * @retval  status code that indicates the execution status of the function.
 325:Middlewares/Third_Party/FreeRTOS/Source/CMSIS_RTOS/cmsis_os.c **** * @note   MUST REMAIN UNCHANGED: \b osThreadSetPriority shall be consistent in every CMSIS-RTOS.
 326:Middlewares/Third_Party/FreeRTOS/Source/CMSIS_RTOS/cmsis_os.c **** */
 327:Middlewares/Third_Party/FreeRTOS/Source/CMSIS_RTOS/cmsis_os.c **** osStatus osThreadSetPriority (osThreadId thread_id, osPriority priority)
 328:Middlewares/Third_Party/FreeRTOS/Source/CMSIS_RTOS/cmsis_os.c **** {
 298              		.loc 1 328 0
 299              		.cfi_startproc
 300              		@ args = 0, pretend = 0, frame = 0
 301              		@ frame_needed = 0, uses_anonymous_args = 0
 302              	.LVL14:
 303 0000 08B5     		push	{r3, lr}
 304              	.LCFI6:
 305              		.cfi_def_cfa_offset 8
 306              		.cfi_offset 3, -8
 307              		.cfi_offset 14, -4
 308              	.LBB107:
 309              	.LBB108:
 150:Middlewares/Third_Party/FreeRTOS/Source/CMSIS_RTOS/cmsis_os.c ****     fpriority += (priority - osPriorityIdle);
 310              		.loc 1 150 0
ARM GAS  C:\Users\ALEX'S~1\AppData\Local\Temp\ccjCNn9l.s 			page 14


 311 0002 8429     		cmp	r1, #132
 151:Middlewares/Third_Party/FreeRTOS/Source/CMSIS_RTOS/cmsis_os.c ****   }
 312              		.loc 1 151 0
 313 0004 14BF     		ite	ne
 314 0006 0331     		addne	r1, r1, #3
 315              	.LVL15:
 148:Middlewares/Third_Party/FreeRTOS/Source/CMSIS_RTOS/cmsis_os.c ****   
 316              		.loc 1 148 0
 317 0008 0021     		moveq	r1, #0
 318              	.LVL16:
 319              	.LBE108:
 320              	.LBE107:
 329:Middlewares/Third_Party/FreeRTOS/Source/CMSIS_RTOS/cmsis_os.c **** #if (INCLUDE_vTaskPrioritySet == 1)
 330:Middlewares/Third_Party/FreeRTOS/Source/CMSIS_RTOS/cmsis_os.c ****   vTaskPrioritySet(thread_id, makeFreeRtosPriority(priority));
 321              		.loc 1 330 0
 322 000a FFF7FEFF 		bl	vTaskPrioritySet
 323              	.LVL17:
 331:Middlewares/Third_Party/FreeRTOS/Source/CMSIS_RTOS/cmsis_os.c ****   return osOK;
 332:Middlewares/Third_Party/FreeRTOS/Source/CMSIS_RTOS/cmsis_os.c **** #else
 333:Middlewares/Third_Party/FreeRTOS/Source/CMSIS_RTOS/cmsis_os.c ****   return osErrorOS;
 334:Middlewares/Third_Party/FreeRTOS/Source/CMSIS_RTOS/cmsis_os.c **** #endif
 335:Middlewares/Third_Party/FreeRTOS/Source/CMSIS_RTOS/cmsis_os.c **** }
 324              		.loc 1 335 0
 325 000e 0020     		movs	r0, #0
 326 0010 08BD     		pop	{r3, pc}
 327              		.cfi_endproc
 328              	.LFE40:
 330 0012 00BF     		.section	.text.osThreadGetPriority,"ax",%progbits
 331              		.align	1
 332              		.p2align 2,,3
 333              		.global	osThreadGetPriority
 334              		.syntax unified
 335              		.thumb
 336              		.thumb_func
 337              		.fpu fpv4-sp-d16
 339              	osThreadGetPriority:
 340              	.LFB41:
 336:Middlewares/Third_Party/FreeRTOS/Source/CMSIS_RTOS/cmsis_os.c **** 
 337:Middlewares/Third_Party/FreeRTOS/Source/CMSIS_RTOS/cmsis_os.c **** /**
 338:Middlewares/Third_Party/FreeRTOS/Source/CMSIS_RTOS/cmsis_os.c **** * @brief   Get current priority of an active thread.
 339:Middlewares/Third_Party/FreeRTOS/Source/CMSIS_RTOS/cmsis_os.c **** * @param   thread_id     thread ID obtained by \ref osThreadCreate or \ref osThreadGetId.
 340:Middlewares/Third_Party/FreeRTOS/Source/CMSIS_RTOS/cmsis_os.c **** * @retval  current priority value of the thread function.
 341:Middlewares/Third_Party/FreeRTOS/Source/CMSIS_RTOS/cmsis_os.c **** * @note   MUST REMAIN UNCHANGED: \b osThreadGetPriority shall be consistent in every CMSIS-RTOS.
 342:Middlewares/Third_Party/FreeRTOS/Source/CMSIS_RTOS/cmsis_os.c **** */
 343:Middlewares/Third_Party/FreeRTOS/Source/CMSIS_RTOS/cmsis_os.c **** osPriority osThreadGetPriority (osThreadId thread_id)
 344:Middlewares/Third_Party/FreeRTOS/Source/CMSIS_RTOS/cmsis_os.c **** {
 341              		.loc 1 344 0
 342              		.cfi_startproc
 343              		@ args = 0, pretend = 0, frame = 0
 344              		@ frame_needed = 0, uses_anonymous_args = 0
 345              	.LVL18:
 346 0000 08B5     		push	{r3, lr}
 347              	.LCFI7:
 348              		.cfi_def_cfa_offset 8
 349              		.cfi_offset 3, -8
 350              		.cfi_offset 14, -4
 351              	.LBB109:
ARM GAS  C:\Users\ALEX'S~1\AppData\Local\Temp\ccjCNn9l.s 			page 15


 352              	.LBB110:
 353              	.LBB111:
 354              		.loc 2 109 0
 355              		.syntax unified
 356              	@ 109 "Drivers/CMSIS/Include/cmsis_gcc.h" 1
 357 0002 EFF30583 		MRS r3, ipsr
 358              	@ 0 "" 2
 359              		.thumb
 360              		.syntax unified
 361              	.LBE111:
 362              	.LBE110:
 363              	.LBE109:
 345:Middlewares/Third_Party/FreeRTOS/Source/CMSIS_RTOS/cmsis_os.c **** #if (INCLUDE_uxTaskPriorityGet == 1)
 346:Middlewares/Third_Party/FreeRTOS/Source/CMSIS_RTOS/cmsis_os.c ****   if (inHandlerMode())
 364              		.loc 1 346 0
 365 0006 33B1     		cbz	r3, .L26
 347:Middlewares/Third_Party/FreeRTOS/Source/CMSIS_RTOS/cmsis_os.c ****   {
 348:Middlewares/Third_Party/FreeRTOS/Source/CMSIS_RTOS/cmsis_os.c ****     return makeCmsisPriority(uxTaskPriorityGetFromISR(thread_id));  
 366              		.loc 1 348 0
 367 0008 FFF7FEFF 		bl	uxTaskPriorityGetFromISR
 368              	.LVL19:
 369              	.LBB112:
 370              	.LBB113:
 163:Middlewares/Third_Party/FreeRTOS/Source/CMSIS_RTOS/cmsis_os.c ****     priority = (osPriority)((int)osPriorityIdle + (int)(fpriority - tskIDLE_PRIORITY));
 371              		.loc 1 163 0
 372 000c 0628     		cmp	r0, #6
 373 000e 06D8     		bhi	.L29
 374              	.LVL20:
 375              	.L31:
 376              	.LBE113:
 377              	.LBE112:
 378              	.LBB115:
 379              	.LBB116:
 164:Middlewares/Third_Party/FreeRTOS/Source/CMSIS_RTOS/cmsis_os.c ****   }
 380              		.loc 1 164 0
 381 0010 0338     		subs	r0, r0, #3
 382 0012 00B2     		sxth	r0, r0
 383              	.LVL21:
 384              	.LBE116:
 385              	.LBE115:
 349:Middlewares/Third_Party/FreeRTOS/Source/CMSIS_RTOS/cmsis_os.c ****   }
 350:Middlewares/Third_Party/FreeRTOS/Source/CMSIS_RTOS/cmsis_os.c ****   else
 351:Middlewares/Third_Party/FreeRTOS/Source/CMSIS_RTOS/cmsis_os.c ****   {  
 352:Middlewares/Third_Party/FreeRTOS/Source/CMSIS_RTOS/cmsis_os.c ****     return makeCmsisPriority(uxTaskPriorityGet(thread_id));
 353:Middlewares/Third_Party/FreeRTOS/Source/CMSIS_RTOS/cmsis_os.c ****   }
 354:Middlewares/Third_Party/FreeRTOS/Source/CMSIS_RTOS/cmsis_os.c **** #else
 355:Middlewares/Third_Party/FreeRTOS/Source/CMSIS_RTOS/cmsis_os.c ****   return osPriorityError;
 356:Middlewares/Third_Party/FreeRTOS/Source/CMSIS_RTOS/cmsis_os.c **** #endif
 357:Middlewares/Third_Party/FreeRTOS/Source/CMSIS_RTOS/cmsis_os.c **** }
 386              		.loc 1 357 0
 387 0014 08BD     		pop	{r3, pc}
 388              	.LVL22:
 389              	.L26:
 352:Middlewares/Third_Party/FreeRTOS/Source/CMSIS_RTOS/cmsis_os.c ****   }
 390              		.loc 1 352 0
 391 0016 FFF7FEFF 		bl	uxTaskPriorityGet
 392              	.LVL23:
ARM GAS  C:\Users\ALEX'S~1\AppData\Local\Temp\ccjCNn9l.s 			page 16


 393              	.LBB118:
 394              	.LBB117:
 163:Middlewares/Third_Party/FreeRTOS/Source/CMSIS_RTOS/cmsis_os.c ****     priority = (osPriority)((int)osPriorityIdle + (int)(fpriority - tskIDLE_PRIORITY));
 395              		.loc 1 163 0
 396 001a 0628     		cmp	r0, #6
 397 001c F8D9     		bls	.L31
 398              	.LVL24:
 399              	.L29:
 400              	.LBE117:
 401              	.LBE118:
 402              	.LBB119:
 403              	.LBB114:
 161:Middlewares/Third_Party/FreeRTOS/Source/CMSIS_RTOS/cmsis_os.c ****   
 404              		.loc 1 161 0
 405 001e 8420     		movs	r0, #132
 406              	.LBE114:
 407              	.LBE119:
 408              		.loc 1 357 0
 409 0020 08BD     		pop	{r3, pc}
 410              		.cfi_endproc
 411              	.LFE41:
 413 0022 00BF     		.section	.text.osDelay,"ax",%progbits
 414              		.align	1
 415              		.p2align 2,,3
 416              		.global	osDelay
 417              		.syntax unified
 418              		.thumb
 419              		.thumb_func
 420              		.fpu fpv4-sp-d16
 422              	osDelay:
 423              	.LFB42:
 358:Middlewares/Third_Party/FreeRTOS/Source/CMSIS_RTOS/cmsis_os.c **** 
 359:Middlewares/Third_Party/FreeRTOS/Source/CMSIS_RTOS/cmsis_os.c **** /*********************** Generic Wait Functions *******************************/
 360:Middlewares/Third_Party/FreeRTOS/Source/CMSIS_RTOS/cmsis_os.c **** /**
 361:Middlewares/Third_Party/FreeRTOS/Source/CMSIS_RTOS/cmsis_os.c **** * @brief   Wait for Timeout (Time Delay)
 362:Middlewares/Third_Party/FreeRTOS/Source/CMSIS_RTOS/cmsis_os.c **** * @param   millisec      time delay value
 363:Middlewares/Third_Party/FreeRTOS/Source/CMSIS_RTOS/cmsis_os.c **** * @retval  status code that indicates the execution status of the function.
 364:Middlewares/Third_Party/FreeRTOS/Source/CMSIS_RTOS/cmsis_os.c **** */
 365:Middlewares/Third_Party/FreeRTOS/Source/CMSIS_RTOS/cmsis_os.c **** osStatus osDelay (uint32_t millisec)
 366:Middlewares/Third_Party/FreeRTOS/Source/CMSIS_RTOS/cmsis_os.c **** {
 424              		.loc 1 366 0
 425              		.cfi_startproc
 426              		@ args = 0, pretend = 0, frame = 0
 427              		@ frame_needed = 0, uses_anonymous_args = 0
 428              	.LVL25:
 429 0000 08B5     		push	{r3, lr}
 430              	.LCFI8:
 431              		.cfi_def_cfa_offset 8
 432              		.cfi_offset 3, -8
 433              		.cfi_offset 14, -4
 367:Middlewares/Third_Party/FreeRTOS/Source/CMSIS_RTOS/cmsis_os.c **** #if INCLUDE_vTaskDelay
 368:Middlewares/Third_Party/FreeRTOS/Source/CMSIS_RTOS/cmsis_os.c ****   TickType_t ticks = millisec / portTICK_PERIOD_MS;
 369:Middlewares/Third_Party/FreeRTOS/Source/CMSIS_RTOS/cmsis_os.c ****   
 370:Middlewares/Third_Party/FreeRTOS/Source/CMSIS_RTOS/cmsis_os.c ****   vTaskDelay(ticks ? ticks : 1);          /* Minimum delay = 1 tick */
 434              		.loc 1 370 0
 435 0002 0028     		cmp	r0, #0
 436 0004 08BF     		it	eq
ARM GAS  C:\Users\ALEX'S~1\AppData\Local\Temp\ccjCNn9l.s 			page 17


 437 0006 0120     		moveq	r0, #1
 438              	.LVL26:
 439 0008 FFF7FEFF 		bl	vTaskDelay
 440              	.LVL27:
 371:Middlewares/Third_Party/FreeRTOS/Source/CMSIS_RTOS/cmsis_os.c ****   
 372:Middlewares/Third_Party/FreeRTOS/Source/CMSIS_RTOS/cmsis_os.c ****   return osOK;
 373:Middlewares/Third_Party/FreeRTOS/Source/CMSIS_RTOS/cmsis_os.c **** #else
 374:Middlewares/Third_Party/FreeRTOS/Source/CMSIS_RTOS/cmsis_os.c ****   (void) millisec;
 375:Middlewares/Third_Party/FreeRTOS/Source/CMSIS_RTOS/cmsis_os.c ****   
 376:Middlewares/Third_Party/FreeRTOS/Source/CMSIS_RTOS/cmsis_os.c ****   return osErrorResource;
 377:Middlewares/Third_Party/FreeRTOS/Source/CMSIS_RTOS/cmsis_os.c **** #endif
 378:Middlewares/Third_Party/FreeRTOS/Source/CMSIS_RTOS/cmsis_os.c **** }
 441              		.loc 1 378 0
 442 000c 0020     		movs	r0, #0
 443 000e 08BD     		pop	{r3, pc}
 444              		.cfi_endproc
 445              	.LFE42:
 447              		.section	.text.osTimerCreate,"ax",%progbits
 448              		.align	1
 449              		.p2align 2,,3
 450              		.global	osTimerCreate
 451              		.syntax unified
 452              		.thumb
 453              		.thumb_func
 454              		.fpu fpv4-sp-d16
 456              	osTimerCreate:
 457              	.LFB43:
 379:Middlewares/Third_Party/FreeRTOS/Source/CMSIS_RTOS/cmsis_os.c **** 
 380:Middlewares/Third_Party/FreeRTOS/Source/CMSIS_RTOS/cmsis_os.c **** #if (defined (osFeature_Wait)  &&  (osFeature_Wait != 0)) /* Generic Wait available */
 381:Middlewares/Third_Party/FreeRTOS/Source/CMSIS_RTOS/cmsis_os.c **** /**
 382:Middlewares/Third_Party/FreeRTOS/Source/CMSIS_RTOS/cmsis_os.c **** * @brief  Wait for Signal, Message, Mail, or Timeout
 383:Middlewares/Third_Party/FreeRTOS/Source/CMSIS_RTOS/cmsis_os.c **** * @param   millisec  timeout value or 0 in case of no time-out
 384:Middlewares/Third_Party/FreeRTOS/Source/CMSIS_RTOS/cmsis_os.c **** * @retval  event that contains signal, message, or mail information or error code.
 385:Middlewares/Third_Party/FreeRTOS/Source/CMSIS_RTOS/cmsis_os.c **** * @note   MUST REMAIN UNCHANGED: \b osWait shall be consistent in every CMSIS-RTOS.
 386:Middlewares/Third_Party/FreeRTOS/Source/CMSIS_RTOS/cmsis_os.c **** */
 387:Middlewares/Third_Party/FreeRTOS/Source/CMSIS_RTOS/cmsis_os.c **** osEvent osWait (uint32_t millisec);
 388:Middlewares/Third_Party/FreeRTOS/Source/CMSIS_RTOS/cmsis_os.c **** 
 389:Middlewares/Third_Party/FreeRTOS/Source/CMSIS_RTOS/cmsis_os.c **** #endif  /* Generic Wait available */
 390:Middlewares/Third_Party/FreeRTOS/Source/CMSIS_RTOS/cmsis_os.c **** 
 391:Middlewares/Third_Party/FreeRTOS/Source/CMSIS_RTOS/cmsis_os.c **** /***********************  Timer Management Functions ***************************/
 392:Middlewares/Third_Party/FreeRTOS/Source/CMSIS_RTOS/cmsis_os.c **** /**
 393:Middlewares/Third_Party/FreeRTOS/Source/CMSIS_RTOS/cmsis_os.c **** * @brief  Create a timer.
 394:Middlewares/Third_Party/FreeRTOS/Source/CMSIS_RTOS/cmsis_os.c **** * @param  timer_def     timer object referenced with \ref osTimer.
 395:Middlewares/Third_Party/FreeRTOS/Source/CMSIS_RTOS/cmsis_os.c **** * @param  type          osTimerOnce for one-shot or osTimerPeriodic for periodic behavior.
 396:Middlewares/Third_Party/FreeRTOS/Source/CMSIS_RTOS/cmsis_os.c **** * @param  argument      argument to the timer call back function.
 397:Middlewares/Third_Party/FreeRTOS/Source/CMSIS_RTOS/cmsis_os.c **** * @retval  timer ID for reference by other functions or NULL in case of error.
 398:Middlewares/Third_Party/FreeRTOS/Source/CMSIS_RTOS/cmsis_os.c **** * @note   MUST REMAIN UNCHANGED: \b osTimerCreate shall be consistent in every CMSIS-RTOS.
 399:Middlewares/Third_Party/FreeRTOS/Source/CMSIS_RTOS/cmsis_os.c **** */
 400:Middlewares/Third_Party/FreeRTOS/Source/CMSIS_RTOS/cmsis_os.c **** osTimerId osTimerCreate (const osTimerDef_t *timer_def, os_timer_type type, void *argument)
 401:Middlewares/Third_Party/FreeRTOS/Source/CMSIS_RTOS/cmsis_os.c **** {
 458              		.loc 1 401 0
 459              		.cfi_startproc
 460              		@ args = 0, pretend = 0, frame = 0
 461              		@ frame_needed = 0, uses_anonymous_args = 0
 462              		@ link register save eliminated.
 463              	.LVL28:
 402:Middlewares/Third_Party/FreeRTOS/Source/CMSIS_RTOS/cmsis_os.c **** #if (configUSE_TIMERS == 1)
ARM GAS  C:\Users\ALEX'S~1\AppData\Local\Temp\ccjCNn9l.s 			page 18


 403:Middlewares/Third_Party/FreeRTOS/Source/CMSIS_RTOS/cmsis_os.c **** 
 404:Middlewares/Third_Party/FreeRTOS/Source/CMSIS_RTOS/cmsis_os.c **** #if( ( configSUPPORT_STATIC_ALLOCATION == 1 ) && ( configSUPPORT_DYNAMIC_ALLOCATION == 1 ) ) 
 405:Middlewares/Third_Party/FreeRTOS/Source/CMSIS_RTOS/cmsis_os.c ****   if(timer_def->controlblock != NULL) {
 406:Middlewares/Third_Party/FreeRTOS/Source/CMSIS_RTOS/cmsis_os.c ****     return xTimerCreateStatic((const char *)"",
 407:Middlewares/Third_Party/FreeRTOS/Source/CMSIS_RTOS/cmsis_os.c ****                       1, // period should be filled when starting the Timer using osTimerStart
 408:Middlewares/Third_Party/FreeRTOS/Source/CMSIS_RTOS/cmsis_os.c ****                       (type == osTimerPeriodic) ? pdTRUE : pdFALSE,
 409:Middlewares/Third_Party/FreeRTOS/Source/CMSIS_RTOS/cmsis_os.c ****                       (void *) argument,
 410:Middlewares/Third_Party/FreeRTOS/Source/CMSIS_RTOS/cmsis_os.c ****                       (TaskFunction_t)timer_def->ptimer,
 411:Middlewares/Third_Party/FreeRTOS/Source/CMSIS_RTOS/cmsis_os.c ****                       (StaticTimer_t *)timer_def->controlblock);
 412:Middlewares/Third_Party/FreeRTOS/Source/CMSIS_RTOS/cmsis_os.c ****   }
 413:Middlewares/Third_Party/FreeRTOS/Source/CMSIS_RTOS/cmsis_os.c ****   else {
 414:Middlewares/Third_Party/FreeRTOS/Source/CMSIS_RTOS/cmsis_os.c ****     return xTimerCreate((const char *)"",
 415:Middlewares/Third_Party/FreeRTOS/Source/CMSIS_RTOS/cmsis_os.c ****                       1, // period should be filled when starting the Timer using osTimerStart
 416:Middlewares/Third_Party/FreeRTOS/Source/CMSIS_RTOS/cmsis_os.c ****                       (type == osTimerPeriodic) ? pdTRUE : pdFALSE,
 417:Middlewares/Third_Party/FreeRTOS/Source/CMSIS_RTOS/cmsis_os.c ****                       (void *) argument,
 418:Middlewares/Third_Party/FreeRTOS/Source/CMSIS_RTOS/cmsis_os.c ****                       (TaskFunction_t)timer_def->ptimer);
 419:Middlewares/Third_Party/FreeRTOS/Source/CMSIS_RTOS/cmsis_os.c ****  }
 420:Middlewares/Third_Party/FreeRTOS/Source/CMSIS_RTOS/cmsis_os.c **** #elif( configSUPPORT_STATIC_ALLOCATION == 1 )
 421:Middlewares/Third_Party/FreeRTOS/Source/CMSIS_RTOS/cmsis_os.c ****   return xTimerCreateStatic((const char *)"",
 422:Middlewares/Third_Party/FreeRTOS/Source/CMSIS_RTOS/cmsis_os.c ****                       1, // period should be filled when starting the Timer using osTimerStart
 423:Middlewares/Third_Party/FreeRTOS/Source/CMSIS_RTOS/cmsis_os.c ****                       (type == osTimerPeriodic) ? pdTRUE : pdFALSE,
 424:Middlewares/Third_Party/FreeRTOS/Source/CMSIS_RTOS/cmsis_os.c ****                       (void *) argument,
 425:Middlewares/Third_Party/FreeRTOS/Source/CMSIS_RTOS/cmsis_os.c ****                       (TaskFunction_t)timer_def->ptimer,
 426:Middlewares/Third_Party/FreeRTOS/Source/CMSIS_RTOS/cmsis_os.c ****                       (StaticTimer_t *)timer_def->controlblock);  
 427:Middlewares/Third_Party/FreeRTOS/Source/CMSIS_RTOS/cmsis_os.c **** #else
 428:Middlewares/Third_Party/FreeRTOS/Source/CMSIS_RTOS/cmsis_os.c ****   return xTimerCreate((const char *)"",
 429:Middlewares/Third_Party/FreeRTOS/Source/CMSIS_RTOS/cmsis_os.c ****                       1, // period should be filled when starting the Timer using osTimerStart
 430:Middlewares/Third_Party/FreeRTOS/Source/CMSIS_RTOS/cmsis_os.c ****                       (type == osTimerPeriodic) ? pdTRUE : pdFALSE,
 431:Middlewares/Third_Party/FreeRTOS/Source/CMSIS_RTOS/cmsis_os.c ****                       (void *) argument,
 432:Middlewares/Third_Party/FreeRTOS/Source/CMSIS_RTOS/cmsis_os.c ****                       (TaskFunction_t)timer_def->ptimer);
 433:Middlewares/Third_Party/FreeRTOS/Source/CMSIS_RTOS/cmsis_os.c **** #endif
 434:Middlewares/Third_Party/FreeRTOS/Source/CMSIS_RTOS/cmsis_os.c **** 
 435:Middlewares/Third_Party/FreeRTOS/Source/CMSIS_RTOS/cmsis_os.c **** #else 
 436:Middlewares/Third_Party/FreeRTOS/Source/CMSIS_RTOS/cmsis_os.c **** 	return NULL;
 437:Middlewares/Third_Party/FreeRTOS/Source/CMSIS_RTOS/cmsis_os.c **** #endif
 438:Middlewares/Third_Party/FreeRTOS/Source/CMSIS_RTOS/cmsis_os.c **** }
 464              		.loc 1 438 0
 465 0000 0020     		movs	r0, #0
 466              	.LVL29:
 467 0002 7047     		bx	lr
 468              		.cfi_endproc
 469              	.LFE43:
 471              		.section	.text.osTimerStart,"ax",%progbits
 472              		.align	1
 473              		.p2align 2,,3
 474              		.global	osTimerStart
 475              		.syntax unified
 476              		.thumb
 477              		.thumb_func
 478              		.fpu fpv4-sp-d16
 480              	osTimerStart:
 481              	.LFB44:
 439:Middlewares/Third_Party/FreeRTOS/Source/CMSIS_RTOS/cmsis_os.c **** 
 440:Middlewares/Third_Party/FreeRTOS/Source/CMSIS_RTOS/cmsis_os.c **** /**
 441:Middlewares/Third_Party/FreeRTOS/Source/CMSIS_RTOS/cmsis_os.c **** * @brief  Start or restart a timer.
 442:Middlewares/Third_Party/FreeRTOS/Source/CMSIS_RTOS/cmsis_os.c **** * @param  timer_id      timer ID obtained by \ref osTimerCreate.
 443:Middlewares/Third_Party/FreeRTOS/Source/CMSIS_RTOS/cmsis_os.c **** * @param  millisec      time delay value of the timer.
ARM GAS  C:\Users\ALEX'S~1\AppData\Local\Temp\ccjCNn9l.s 			page 19


 444:Middlewares/Third_Party/FreeRTOS/Source/CMSIS_RTOS/cmsis_os.c **** * @retval  status code that indicates the execution status of the function
 445:Middlewares/Third_Party/FreeRTOS/Source/CMSIS_RTOS/cmsis_os.c **** * @note   MUST REMAIN UNCHANGED: \b osTimerStart shall be consistent in every CMSIS-RTOS.
 446:Middlewares/Third_Party/FreeRTOS/Source/CMSIS_RTOS/cmsis_os.c **** */
 447:Middlewares/Third_Party/FreeRTOS/Source/CMSIS_RTOS/cmsis_os.c **** osStatus osTimerStart (osTimerId timer_id, uint32_t millisec)
 448:Middlewares/Third_Party/FreeRTOS/Source/CMSIS_RTOS/cmsis_os.c **** {
 482              		.loc 1 448 0
 483              		.cfi_startproc
 484              		@ args = 0, pretend = 0, frame = 0
 485              		@ frame_needed = 0, uses_anonymous_args = 0
 486              		@ link register save eliminated.
 487              	.LVL30:
 449:Middlewares/Third_Party/FreeRTOS/Source/CMSIS_RTOS/cmsis_os.c ****   osStatus result = osOK;
 450:Middlewares/Third_Party/FreeRTOS/Source/CMSIS_RTOS/cmsis_os.c **** #if (configUSE_TIMERS == 1)  
 451:Middlewares/Third_Party/FreeRTOS/Source/CMSIS_RTOS/cmsis_os.c ****   portBASE_TYPE taskWoken = pdFALSE;
 452:Middlewares/Third_Party/FreeRTOS/Source/CMSIS_RTOS/cmsis_os.c ****   TickType_t ticks = millisec / portTICK_PERIOD_MS;
 453:Middlewares/Third_Party/FreeRTOS/Source/CMSIS_RTOS/cmsis_os.c **** 
 454:Middlewares/Third_Party/FreeRTOS/Source/CMSIS_RTOS/cmsis_os.c ****   if (ticks == 0)
 455:Middlewares/Third_Party/FreeRTOS/Source/CMSIS_RTOS/cmsis_os.c ****     ticks = 1;
 456:Middlewares/Third_Party/FreeRTOS/Source/CMSIS_RTOS/cmsis_os.c ****     
 457:Middlewares/Third_Party/FreeRTOS/Source/CMSIS_RTOS/cmsis_os.c ****   if (inHandlerMode()) 
 458:Middlewares/Third_Party/FreeRTOS/Source/CMSIS_RTOS/cmsis_os.c ****   {
 459:Middlewares/Third_Party/FreeRTOS/Source/CMSIS_RTOS/cmsis_os.c ****     if (xTimerChangePeriodFromISR(timer_id, ticks, &taskWoken) != pdPASS)
 460:Middlewares/Third_Party/FreeRTOS/Source/CMSIS_RTOS/cmsis_os.c ****     {
 461:Middlewares/Third_Party/FreeRTOS/Source/CMSIS_RTOS/cmsis_os.c ****       result = osErrorOS;
 462:Middlewares/Third_Party/FreeRTOS/Source/CMSIS_RTOS/cmsis_os.c ****     }
 463:Middlewares/Third_Party/FreeRTOS/Source/CMSIS_RTOS/cmsis_os.c ****     else
 464:Middlewares/Third_Party/FreeRTOS/Source/CMSIS_RTOS/cmsis_os.c ****     {
 465:Middlewares/Third_Party/FreeRTOS/Source/CMSIS_RTOS/cmsis_os.c ****       portEND_SWITCHING_ISR(taskWoken);     
 466:Middlewares/Third_Party/FreeRTOS/Source/CMSIS_RTOS/cmsis_os.c ****     }
 467:Middlewares/Third_Party/FreeRTOS/Source/CMSIS_RTOS/cmsis_os.c ****   }
 468:Middlewares/Third_Party/FreeRTOS/Source/CMSIS_RTOS/cmsis_os.c ****   else 
 469:Middlewares/Third_Party/FreeRTOS/Source/CMSIS_RTOS/cmsis_os.c ****   {
 470:Middlewares/Third_Party/FreeRTOS/Source/CMSIS_RTOS/cmsis_os.c ****     if (xTimerChangePeriod(timer_id, ticks, 0) != pdPASS)
 471:Middlewares/Third_Party/FreeRTOS/Source/CMSIS_RTOS/cmsis_os.c ****       result = osErrorOS;
 472:Middlewares/Third_Party/FreeRTOS/Source/CMSIS_RTOS/cmsis_os.c ****   }
 473:Middlewares/Third_Party/FreeRTOS/Source/CMSIS_RTOS/cmsis_os.c **** 
 474:Middlewares/Third_Party/FreeRTOS/Source/CMSIS_RTOS/cmsis_os.c **** #else 
 475:Middlewares/Third_Party/FreeRTOS/Source/CMSIS_RTOS/cmsis_os.c ****   result = osErrorOS;
 476:Middlewares/Third_Party/FreeRTOS/Source/CMSIS_RTOS/cmsis_os.c **** #endif
 477:Middlewares/Third_Party/FreeRTOS/Source/CMSIS_RTOS/cmsis_os.c ****   return result;
 478:Middlewares/Third_Party/FreeRTOS/Source/CMSIS_RTOS/cmsis_os.c **** }
 488              		.loc 1 478 0
 489 0000 FF20     		movs	r0, #255
 490              	.LVL31:
 491 0002 7047     		bx	lr
 492              		.cfi_endproc
 493              	.LFE44:
 495              		.section	.text.osTimerStop,"ax",%progbits
 496              		.align	1
 497              		.p2align 2,,3
 498              		.global	osTimerStop
 499              		.syntax unified
 500              		.thumb
 501              		.thumb_func
 502              		.fpu fpv4-sp-d16
 504              	osTimerStop:
 505              	.LFB45:
ARM GAS  C:\Users\ALEX'S~1\AppData\Local\Temp\ccjCNn9l.s 			page 20


 479:Middlewares/Third_Party/FreeRTOS/Source/CMSIS_RTOS/cmsis_os.c **** 
 480:Middlewares/Third_Party/FreeRTOS/Source/CMSIS_RTOS/cmsis_os.c **** /**
 481:Middlewares/Third_Party/FreeRTOS/Source/CMSIS_RTOS/cmsis_os.c **** * @brief  Stop a timer.
 482:Middlewares/Third_Party/FreeRTOS/Source/CMSIS_RTOS/cmsis_os.c **** * @param  timer_id      timer ID obtained by \ref osTimerCreate
 483:Middlewares/Third_Party/FreeRTOS/Source/CMSIS_RTOS/cmsis_os.c **** * @retval  status code that indicates the execution status of the function.
 484:Middlewares/Third_Party/FreeRTOS/Source/CMSIS_RTOS/cmsis_os.c **** * @note   MUST REMAIN UNCHANGED: \b osTimerStop shall be consistent in every CMSIS-RTOS.
 485:Middlewares/Third_Party/FreeRTOS/Source/CMSIS_RTOS/cmsis_os.c **** */
 486:Middlewares/Third_Party/FreeRTOS/Source/CMSIS_RTOS/cmsis_os.c **** osStatus osTimerStop (osTimerId timer_id)
 487:Middlewares/Third_Party/FreeRTOS/Source/CMSIS_RTOS/cmsis_os.c **** {
 506              		.loc 1 487 0
 507              		.cfi_startproc
 508              		@ args = 0, pretend = 0, frame = 0
 509              		@ frame_needed = 0, uses_anonymous_args = 0
 510              		@ link register save eliminated.
 511              	.LVL32:
 488:Middlewares/Third_Party/FreeRTOS/Source/CMSIS_RTOS/cmsis_os.c ****   osStatus result = osOK;
 489:Middlewares/Third_Party/FreeRTOS/Source/CMSIS_RTOS/cmsis_os.c **** #if (configUSE_TIMERS == 1)  
 490:Middlewares/Third_Party/FreeRTOS/Source/CMSIS_RTOS/cmsis_os.c ****   portBASE_TYPE taskWoken = pdFALSE;
 491:Middlewares/Third_Party/FreeRTOS/Source/CMSIS_RTOS/cmsis_os.c **** 
 492:Middlewares/Third_Party/FreeRTOS/Source/CMSIS_RTOS/cmsis_os.c ****   if (inHandlerMode()) {
 493:Middlewares/Third_Party/FreeRTOS/Source/CMSIS_RTOS/cmsis_os.c ****     if (xTimerStopFromISR(timer_id, &taskWoken) != pdPASS) {
 494:Middlewares/Third_Party/FreeRTOS/Source/CMSIS_RTOS/cmsis_os.c ****       return osErrorOS;
 495:Middlewares/Third_Party/FreeRTOS/Source/CMSIS_RTOS/cmsis_os.c ****     }
 496:Middlewares/Third_Party/FreeRTOS/Source/CMSIS_RTOS/cmsis_os.c ****     portEND_SWITCHING_ISR(taskWoken);
 497:Middlewares/Third_Party/FreeRTOS/Source/CMSIS_RTOS/cmsis_os.c ****   }
 498:Middlewares/Third_Party/FreeRTOS/Source/CMSIS_RTOS/cmsis_os.c ****   else {
 499:Middlewares/Third_Party/FreeRTOS/Source/CMSIS_RTOS/cmsis_os.c ****     if (xTimerStop(timer_id, 0) != pdPASS) {
 500:Middlewares/Third_Party/FreeRTOS/Source/CMSIS_RTOS/cmsis_os.c ****       result = osErrorOS;
 501:Middlewares/Third_Party/FreeRTOS/Source/CMSIS_RTOS/cmsis_os.c ****     }
 502:Middlewares/Third_Party/FreeRTOS/Source/CMSIS_RTOS/cmsis_os.c ****   }
 503:Middlewares/Third_Party/FreeRTOS/Source/CMSIS_RTOS/cmsis_os.c **** #else 
 504:Middlewares/Third_Party/FreeRTOS/Source/CMSIS_RTOS/cmsis_os.c ****   result = osErrorOS;
 505:Middlewares/Third_Party/FreeRTOS/Source/CMSIS_RTOS/cmsis_os.c **** #endif 
 506:Middlewares/Third_Party/FreeRTOS/Source/CMSIS_RTOS/cmsis_os.c ****   return result;
 507:Middlewares/Third_Party/FreeRTOS/Source/CMSIS_RTOS/cmsis_os.c **** }
 512              		.loc 1 507 0
 513 0000 FF20     		movs	r0, #255
 514              	.LVL33:
 515 0002 7047     		bx	lr
 516              		.cfi_endproc
 517              	.LFE45:
 519              		.section	.text.osTimerDelete,"ax",%progbits
 520              		.align	1
 521              		.p2align 2,,3
 522              		.global	osTimerDelete
 523              		.syntax unified
 524              		.thumb
 525              		.thumb_func
 526              		.fpu fpv4-sp-d16
 528              	osTimerDelete:
 529              	.LFB87:
 530              		.cfi_startproc
 531              		@ args = 0, pretend = 0, frame = 0
 532              		@ frame_needed = 0, uses_anonymous_args = 0
 533              		@ link register save eliminated.
 534 0000 FF20     		movs	r0, #255
 535 0002 7047     		bx	lr
ARM GAS  C:\Users\ALEX'S~1\AppData\Local\Temp\ccjCNn9l.s 			page 21


 536              		.cfi_endproc
 537              	.LFE87:
 539              		.section	.text.osSignalSet,"ax",%progbits
 540              		.align	1
 541              		.p2align 2,,3
 542              		.global	osSignalSet
 543              		.syntax unified
 544              		.thumb
 545              		.thumb_func
 546              		.fpu fpv4-sp-d16
 548              	osSignalSet:
 549              	.LFB47:
 508:Middlewares/Third_Party/FreeRTOS/Source/CMSIS_RTOS/cmsis_os.c **** 
 509:Middlewares/Third_Party/FreeRTOS/Source/CMSIS_RTOS/cmsis_os.c **** /**
 510:Middlewares/Third_Party/FreeRTOS/Source/CMSIS_RTOS/cmsis_os.c **** * @brief  Delete a timer.
 511:Middlewares/Third_Party/FreeRTOS/Source/CMSIS_RTOS/cmsis_os.c **** * @param  timer_id      timer ID obtained by \ref osTimerCreate
 512:Middlewares/Third_Party/FreeRTOS/Source/CMSIS_RTOS/cmsis_os.c **** * @retval  status code that indicates the execution status of the function.
 513:Middlewares/Third_Party/FreeRTOS/Source/CMSIS_RTOS/cmsis_os.c **** * @note   MUST REMAIN UNCHANGED: \b osTimerDelete shall be consistent in every CMSIS-RTOS.
 514:Middlewares/Third_Party/FreeRTOS/Source/CMSIS_RTOS/cmsis_os.c **** */
 515:Middlewares/Third_Party/FreeRTOS/Source/CMSIS_RTOS/cmsis_os.c **** osStatus osTimerDelete (osTimerId timer_id)
 516:Middlewares/Third_Party/FreeRTOS/Source/CMSIS_RTOS/cmsis_os.c **** {
 517:Middlewares/Third_Party/FreeRTOS/Source/CMSIS_RTOS/cmsis_os.c **** osStatus result = osOK;
 518:Middlewares/Third_Party/FreeRTOS/Source/CMSIS_RTOS/cmsis_os.c **** 
 519:Middlewares/Third_Party/FreeRTOS/Source/CMSIS_RTOS/cmsis_os.c **** #if (configUSE_TIMERS == 1)
 520:Middlewares/Third_Party/FreeRTOS/Source/CMSIS_RTOS/cmsis_os.c **** 
 521:Middlewares/Third_Party/FreeRTOS/Source/CMSIS_RTOS/cmsis_os.c ****    if (inHandlerMode()) {
 522:Middlewares/Third_Party/FreeRTOS/Source/CMSIS_RTOS/cmsis_os.c ****      return osErrorISR;
 523:Middlewares/Third_Party/FreeRTOS/Source/CMSIS_RTOS/cmsis_os.c ****   }
 524:Middlewares/Third_Party/FreeRTOS/Source/CMSIS_RTOS/cmsis_os.c ****   else { 
 525:Middlewares/Third_Party/FreeRTOS/Source/CMSIS_RTOS/cmsis_os.c ****     if ((xTimerDelete(timer_id, osWaitForever )) != pdPASS) {
 526:Middlewares/Third_Party/FreeRTOS/Source/CMSIS_RTOS/cmsis_os.c ****       result = osErrorOS;
 527:Middlewares/Third_Party/FreeRTOS/Source/CMSIS_RTOS/cmsis_os.c ****     }
 528:Middlewares/Third_Party/FreeRTOS/Source/CMSIS_RTOS/cmsis_os.c ****   } 
 529:Middlewares/Third_Party/FreeRTOS/Source/CMSIS_RTOS/cmsis_os.c ****     
 530:Middlewares/Third_Party/FreeRTOS/Source/CMSIS_RTOS/cmsis_os.c **** #else 
 531:Middlewares/Third_Party/FreeRTOS/Source/CMSIS_RTOS/cmsis_os.c ****   result = osErrorOS;
 532:Middlewares/Third_Party/FreeRTOS/Source/CMSIS_RTOS/cmsis_os.c **** #endif 
 533:Middlewares/Third_Party/FreeRTOS/Source/CMSIS_RTOS/cmsis_os.c ****  
 534:Middlewares/Third_Party/FreeRTOS/Source/CMSIS_RTOS/cmsis_os.c ****   return result;
 535:Middlewares/Third_Party/FreeRTOS/Source/CMSIS_RTOS/cmsis_os.c **** }
 536:Middlewares/Third_Party/FreeRTOS/Source/CMSIS_RTOS/cmsis_os.c **** 
 537:Middlewares/Third_Party/FreeRTOS/Source/CMSIS_RTOS/cmsis_os.c **** /***************************  Signal Management ********************************/
 538:Middlewares/Third_Party/FreeRTOS/Source/CMSIS_RTOS/cmsis_os.c **** /**
 539:Middlewares/Third_Party/FreeRTOS/Source/CMSIS_RTOS/cmsis_os.c **** * @brief  Set the specified Signal Flags of an active thread.
 540:Middlewares/Third_Party/FreeRTOS/Source/CMSIS_RTOS/cmsis_os.c **** * @param  thread_id     thread ID obtained by \ref osThreadCreate or \ref osThreadGetId.
 541:Middlewares/Third_Party/FreeRTOS/Source/CMSIS_RTOS/cmsis_os.c **** * @param  signals       specifies the signal flags of the thread that should be set.
 542:Middlewares/Third_Party/FreeRTOS/Source/CMSIS_RTOS/cmsis_os.c **** * @retval previous signal flags of the specified thread or 0x80000000 in case of incorrect paramete
 543:Middlewares/Third_Party/FreeRTOS/Source/CMSIS_RTOS/cmsis_os.c **** * @note   MUST REMAIN UNCHANGED: \b osSignalSet shall be consistent in every CMSIS-RTOS.
 544:Middlewares/Third_Party/FreeRTOS/Source/CMSIS_RTOS/cmsis_os.c **** */
 545:Middlewares/Third_Party/FreeRTOS/Source/CMSIS_RTOS/cmsis_os.c **** int32_t osSignalSet (osThreadId thread_id, int32_t signal)
 546:Middlewares/Third_Party/FreeRTOS/Source/CMSIS_RTOS/cmsis_os.c **** {
 550              		.loc 1 546 0
 551              		.cfi_startproc
 552              		@ args = 0, pretend = 0, frame = 8
 553              		@ frame_needed = 0, uses_anonymous_args = 0
 554              	.LVL34:
 555              		.loc 1 546 0
ARM GAS  C:\Users\ALEX'S~1\AppData\Local\Temp\ccjCNn9l.s 			page 22


 556 0000 00B5     		push	{lr}
 557              	.LCFI9:
 558              		.cfi_def_cfa_offset 4
 559              		.cfi_offset 14, -4
 547:Middlewares/Third_Party/FreeRTOS/Source/CMSIS_RTOS/cmsis_os.c **** #if( configUSE_TASK_NOTIFICATIONS == 1 )	
 548:Middlewares/Third_Party/FreeRTOS/Source/CMSIS_RTOS/cmsis_os.c ****   BaseType_t xHigherPriorityTaskWoken = pdFALSE;
 560              		.loc 1 548 0
 561 0002 0023     		movs	r3, #0
 546:Middlewares/Third_Party/FreeRTOS/Source/CMSIS_RTOS/cmsis_os.c **** #if( configUSE_TASK_NOTIFICATIONS == 1 )	
 562              		.loc 1 546 0
 563 0004 85B0     		sub	sp, sp, #20
 564              	.LCFI10:
 565              		.cfi_def_cfa_offset 24
 549:Middlewares/Third_Party/FreeRTOS/Source/CMSIS_RTOS/cmsis_os.c ****   uint32_t ulPreviousNotificationValue = 0;
 566              		.loc 1 549 0
 567 0006 CDE90233 		strd	r3, r3, [sp, #8]
 568              	.LBB120:
 569              	.LBB121:
 570              	.LBB122:
 571              		.loc 2 109 0
 572              		.syntax unified
 573              	@ 109 "Drivers/CMSIS/Include/cmsis_gcc.h" 1
 574 000a EFF30583 		MRS r3, ipsr
 575              	@ 0 "" 2
 576              		.thumb
 577              		.syntax unified
 578              	.LBE122:
 579              	.LBE121:
 580              	.LBE120:
 550:Middlewares/Third_Party/FreeRTOS/Source/CMSIS_RTOS/cmsis_os.c ****   
 551:Middlewares/Third_Party/FreeRTOS/Source/CMSIS_RTOS/cmsis_os.c ****   if (inHandlerMode())
 581              		.loc 1 551 0
 582 000e ABB1     		cbz	r3, .L40
 552:Middlewares/Third_Party/FreeRTOS/Source/CMSIS_RTOS/cmsis_os.c ****   {
 553:Middlewares/Third_Party/FreeRTOS/Source/CMSIS_RTOS/cmsis_os.c ****     if(xTaskGenericNotifyFromISR( thread_id , (uint32_t)signal, eSetBits, &ulPreviousNotificationVa
 583              		.loc 1 553 0
 584 0010 02AB     		add	r3, sp, #8
 585 0012 0093     		str	r3, [sp]
 586 0014 0122     		movs	r2, #1
 587 0016 03AB     		add	r3, sp, #12
 588 0018 FFF7FEFF 		bl	xTaskGenericNotifyFromISR
 589              	.LVL35:
 590 001c 0128     		cmp	r0, #1
 591 001e 13D1     		bne	.L45
 554:Middlewares/Third_Party/FreeRTOS/Source/CMSIS_RTOS/cmsis_os.c ****       return 0x80000000;
 555:Middlewares/Third_Party/FreeRTOS/Source/CMSIS_RTOS/cmsis_os.c ****     
 556:Middlewares/Third_Party/FreeRTOS/Source/CMSIS_RTOS/cmsis_os.c ****     portYIELD_FROM_ISR( xHigherPriorityTaskWoken );
 592              		.loc 1 556 0
 593 0020 029B     		ldr	r3, [sp, #8]
 594 0022 3BB1     		cbz	r3, .L44
 595              		.loc 1 556 0 is_stmt 0 discriminator 1
 596 0024 0A4B     		ldr	r3, .L48
 597 0026 4FF08052 		mov	r2, #268435456
 598 002a 1A60     		str	r2, [r3]
 599              		.syntax unified
 600              	@ 556 "Middlewares/Third_Party/FreeRTOS/Source/CMSIS_RTOS/cmsis_os.c" 1
 601 002c BFF34F8F 		dsb
ARM GAS  C:\Users\ALEX'S~1\AppData\Local\Temp\ccjCNn9l.s 			page 23


 602              	@ 0 "" 2
 603              	@ 556 "Middlewares/Third_Party/FreeRTOS/Source/CMSIS_RTOS/cmsis_os.c" 1
 604 0030 BFF36F8F 		isb
 605              	@ 0 "" 2
 606              		.thumb
 607              		.syntax unified
 608              	.L44:
 557:Middlewares/Third_Party/FreeRTOS/Source/CMSIS_RTOS/cmsis_os.c ****   }  
 558:Middlewares/Third_Party/FreeRTOS/Source/CMSIS_RTOS/cmsis_os.c ****   else if(xTaskGenericNotify( thread_id , (uint32_t)signal, eSetBits, &ulPreviousNotificationValue)
 559:Middlewares/Third_Party/FreeRTOS/Source/CMSIS_RTOS/cmsis_os.c ****     return 0x80000000;
 560:Middlewares/Third_Party/FreeRTOS/Source/CMSIS_RTOS/cmsis_os.c ****   
 561:Middlewares/Third_Party/FreeRTOS/Source/CMSIS_RTOS/cmsis_os.c ****   return ulPreviousNotificationValue;
 609              		.loc 1 561 0 is_stmt 1
 610 0034 0398     		ldr	r0, [sp, #12]
 611              	.L39:
 562:Middlewares/Third_Party/FreeRTOS/Source/CMSIS_RTOS/cmsis_os.c **** #else
 563:Middlewares/Third_Party/FreeRTOS/Source/CMSIS_RTOS/cmsis_os.c ****   (void) thread_id;
 564:Middlewares/Third_Party/FreeRTOS/Source/CMSIS_RTOS/cmsis_os.c ****   (void) signal;
 565:Middlewares/Third_Party/FreeRTOS/Source/CMSIS_RTOS/cmsis_os.c **** 
 566:Middlewares/Third_Party/FreeRTOS/Source/CMSIS_RTOS/cmsis_os.c ****   return 0x80000000; /* Task Notification not supported */ 	
 567:Middlewares/Third_Party/FreeRTOS/Source/CMSIS_RTOS/cmsis_os.c **** #endif
 568:Middlewares/Third_Party/FreeRTOS/Source/CMSIS_RTOS/cmsis_os.c **** }
 612              		.loc 1 568 0
 613 0036 05B0     		add	sp, sp, #20
 614              	.LCFI11:
 615              		.cfi_remember_state
 616              		.cfi_def_cfa_offset 4
 617              		@ sp needed
 618 0038 5DF804FB 		ldr	pc, [sp], #4
 619              	.LVL36:
 620              	.L40:
 621              	.LCFI12:
 622              		.cfi_restore_state
 558:Middlewares/Third_Party/FreeRTOS/Source/CMSIS_RTOS/cmsis_os.c ****     return 0x80000000;
 623              		.loc 1 558 0
 624 003c 03AB     		add	r3, sp, #12
 625 003e 0122     		movs	r2, #1
 626 0040 FFF7FEFF 		bl	xTaskGenericNotify
 627              	.LVL37:
 628 0044 0128     		cmp	r0, #1
 629 0046 F5D0     		beq	.L44
 630              	.L45:
 554:Middlewares/Third_Party/FreeRTOS/Source/CMSIS_RTOS/cmsis_os.c ****     
 631              		.loc 1 554 0
 632 0048 4FF00040 		mov	r0, #-2147483648
 633 004c F3E7     		b	.L39
 634              	.L49:
 635 004e 00BF     		.align	2
 636              	.L48:
 637 0050 04ED00E0 		.word	-536810236
 638              		.cfi_endproc
 639              	.LFE47:
 641              		.section	.text.osSignalWait,"ax",%progbits
 642              		.align	1
 643              		.p2align 2,,3
 644              		.global	osSignalWait
 645              		.syntax unified
ARM GAS  C:\Users\ALEX'S~1\AppData\Local\Temp\ccjCNn9l.s 			page 24


 646              		.thumb
 647              		.thumb_func
 648              		.fpu fpv4-sp-d16
 650              	osSignalWait:
 651              	.LFB48:
 569:Middlewares/Third_Party/FreeRTOS/Source/CMSIS_RTOS/cmsis_os.c **** 
 570:Middlewares/Third_Party/FreeRTOS/Source/CMSIS_RTOS/cmsis_os.c **** /**
 571:Middlewares/Third_Party/FreeRTOS/Source/CMSIS_RTOS/cmsis_os.c **** * @brief  Clear the specified Signal Flags of an active thread.
 572:Middlewares/Third_Party/FreeRTOS/Source/CMSIS_RTOS/cmsis_os.c **** * @param  thread_id  thread ID obtained by \ref osThreadCreate or \ref osThreadGetId.
 573:Middlewares/Third_Party/FreeRTOS/Source/CMSIS_RTOS/cmsis_os.c **** * @param  signals    specifies the signal flags of the thread that shall be cleared.
 574:Middlewares/Third_Party/FreeRTOS/Source/CMSIS_RTOS/cmsis_os.c **** * @retval  previous signal flags of the specified thread or 0x80000000 in case of incorrect paramet
 575:Middlewares/Third_Party/FreeRTOS/Source/CMSIS_RTOS/cmsis_os.c **** * @note   MUST REMAIN UNCHANGED: \b osSignalClear shall be consistent in every CMSIS-RTOS.
 576:Middlewares/Third_Party/FreeRTOS/Source/CMSIS_RTOS/cmsis_os.c **** */
 577:Middlewares/Third_Party/FreeRTOS/Source/CMSIS_RTOS/cmsis_os.c **** int32_t osSignalClear (osThreadId thread_id, int32_t signal);
 578:Middlewares/Third_Party/FreeRTOS/Source/CMSIS_RTOS/cmsis_os.c **** 
 579:Middlewares/Third_Party/FreeRTOS/Source/CMSIS_RTOS/cmsis_os.c **** /**
 580:Middlewares/Third_Party/FreeRTOS/Source/CMSIS_RTOS/cmsis_os.c **** * @brief  Wait for one or more Signal Flags to become signaled for the current \b RUNNING thread.
 581:Middlewares/Third_Party/FreeRTOS/Source/CMSIS_RTOS/cmsis_os.c **** * @param  signals   wait until all specified signal flags set or 0 for any single signal flag.
 582:Middlewares/Third_Party/FreeRTOS/Source/CMSIS_RTOS/cmsis_os.c **** * @param  millisec  timeout value or 0 in case of no time-out.
 583:Middlewares/Third_Party/FreeRTOS/Source/CMSIS_RTOS/cmsis_os.c **** * @retval  event flag information or error code.
 584:Middlewares/Third_Party/FreeRTOS/Source/CMSIS_RTOS/cmsis_os.c **** * @note   MUST REMAIN UNCHANGED: \b osSignalWait shall be consistent in every CMSIS-RTOS.
 585:Middlewares/Third_Party/FreeRTOS/Source/CMSIS_RTOS/cmsis_os.c **** */
 586:Middlewares/Third_Party/FreeRTOS/Source/CMSIS_RTOS/cmsis_os.c **** osEvent osSignalWait (int32_t signals, uint32_t millisec)
 587:Middlewares/Third_Party/FreeRTOS/Source/CMSIS_RTOS/cmsis_os.c **** {
 652              		.loc 1 587 0
 653              		.cfi_startproc
 654              		@ args = 0, pretend = 0, frame = 16
 655              		@ frame_needed = 0, uses_anonymous_args = 0
 656              	.LVL38:
 657 0000 30B5     		push	{r4, r5, lr}
 658              	.LCFI13:
 659              		.cfi_def_cfa_offset 12
 660              		.cfi_offset 4, -12
 661              		.cfi_offset 5, -8
 662              		.cfi_offset 14, -4
 663 0002 85B0     		sub	sp, sp, #20
 664              	.LCFI14:
 665              		.cfi_def_cfa_offset 32
 588:Middlewares/Third_Party/FreeRTOS/Source/CMSIS_RTOS/cmsis_os.c ****   osEvent ret;
 589:Middlewares/Third_Party/FreeRTOS/Source/CMSIS_RTOS/cmsis_os.c **** 
 590:Middlewares/Third_Party/FreeRTOS/Source/CMSIS_RTOS/cmsis_os.c **** #if( configUSE_TASK_NOTIFICATIONS == 1 )
 591:Middlewares/Third_Party/FreeRTOS/Source/CMSIS_RTOS/cmsis_os.c **** 	
 592:Middlewares/Third_Party/FreeRTOS/Source/CMSIS_RTOS/cmsis_os.c ****   TickType_t ticks;
 593:Middlewares/Third_Party/FreeRTOS/Source/CMSIS_RTOS/cmsis_os.c **** 
 594:Middlewares/Third_Party/FreeRTOS/Source/CMSIS_RTOS/cmsis_os.c ****   ret.value.signals = 0;  
 666              		.loc 1 594 0
 667 0004 0023     		movs	r3, #0
 587:Middlewares/Third_Party/FreeRTOS/Source/CMSIS_RTOS/cmsis_os.c ****   osEvent ret;
 668              		.loc 1 587 0
 669 0006 0446     		mov	r4, r0
 670              		.loc 1 594 0
 671 0008 0293     		str	r3, [sp, #8]
 672              	.LVL39:
 673              	.LBB123:
 674              	.LBB124:
 675              	.LBB125:
 676              		.loc 2 109 0
ARM GAS  C:\Users\ALEX'S~1\AppData\Local\Temp\ccjCNn9l.s 			page 25


 677              		.syntax unified
 678              	@ 109 "Drivers/CMSIS/Include/cmsis_gcc.h" 1
 679 000a EFF30580 		MRS r0, ipsr
 680              	@ 0 "" 2
 681              	.LVL40:
 682              		.thumb
 683              		.syntax unified
 684              	.LBE125:
 685              	.LBE124:
 686              	.LBE123:
 595:Middlewares/Third_Party/FreeRTOS/Source/CMSIS_RTOS/cmsis_os.c ****   ticks = 0;
 596:Middlewares/Third_Party/FreeRTOS/Source/CMSIS_RTOS/cmsis_os.c ****   if (millisec == osWaitForever) {
 597:Middlewares/Third_Party/FreeRTOS/Source/CMSIS_RTOS/cmsis_os.c ****     ticks = portMAX_DELAY;
 598:Middlewares/Third_Party/FreeRTOS/Source/CMSIS_RTOS/cmsis_os.c ****   }
 599:Middlewares/Third_Party/FreeRTOS/Source/CMSIS_RTOS/cmsis_os.c ****   else if (millisec != 0) {
 600:Middlewares/Third_Party/FreeRTOS/Source/CMSIS_RTOS/cmsis_os.c ****     ticks = millisec / portTICK_PERIOD_MS;
 601:Middlewares/Third_Party/FreeRTOS/Source/CMSIS_RTOS/cmsis_os.c ****     if (ticks == 0) {
 602:Middlewares/Third_Party/FreeRTOS/Source/CMSIS_RTOS/cmsis_os.c ****       ticks = 1;
 603:Middlewares/Third_Party/FreeRTOS/Source/CMSIS_RTOS/cmsis_os.c ****     }
 604:Middlewares/Third_Party/FreeRTOS/Source/CMSIS_RTOS/cmsis_os.c ****   }  
 605:Middlewares/Third_Party/FreeRTOS/Source/CMSIS_RTOS/cmsis_os.c ****   
 606:Middlewares/Third_Party/FreeRTOS/Source/CMSIS_RTOS/cmsis_os.c ****   if (inHandlerMode())
 687              		.loc 1 606 0
 688 000e 48B1     		cbz	r0, .L51
 607:Middlewares/Third_Party/FreeRTOS/Source/CMSIS_RTOS/cmsis_os.c ****   {
 608:Middlewares/Third_Party/FreeRTOS/Source/CMSIS_RTOS/cmsis_os.c ****     ret.status = osErrorISR;  /*Not allowed in ISR*/
 689              		.loc 1 608 0
 690 0010 8223     		movs	r3, #130
 691 0012 0193     		str	r3, [sp, #4]
 692              	.LVL41:
 693              	.L52:
 609:Middlewares/Third_Party/FreeRTOS/Source/CMSIS_RTOS/cmsis_os.c ****   }
 610:Middlewares/Third_Party/FreeRTOS/Source/CMSIS_RTOS/cmsis_os.c ****   else
 611:Middlewares/Third_Party/FreeRTOS/Source/CMSIS_RTOS/cmsis_os.c ****   {
 612:Middlewares/Third_Party/FreeRTOS/Source/CMSIS_RTOS/cmsis_os.c ****     if(xTaskNotifyWait( 0,(uint32_t) signals, (uint32_t *)&ret.value.signals, ticks) != pdTRUE)
 613:Middlewares/Third_Party/FreeRTOS/Source/CMSIS_RTOS/cmsis_os.c ****     {
 614:Middlewares/Third_Party/FreeRTOS/Source/CMSIS_RTOS/cmsis_os.c ****       if(ticks == 0)  ret.status = osOK;
 615:Middlewares/Third_Party/FreeRTOS/Source/CMSIS_RTOS/cmsis_os.c ****       else  ret.status = osEventTimeout;
 616:Middlewares/Third_Party/FreeRTOS/Source/CMSIS_RTOS/cmsis_os.c ****     }
 617:Middlewares/Third_Party/FreeRTOS/Source/CMSIS_RTOS/cmsis_os.c ****     else if(ret.value.signals < 0)
 618:Middlewares/Third_Party/FreeRTOS/Source/CMSIS_RTOS/cmsis_os.c ****     {
 619:Middlewares/Third_Party/FreeRTOS/Source/CMSIS_RTOS/cmsis_os.c ****       ret.status =  osErrorValue;     
 620:Middlewares/Third_Party/FreeRTOS/Source/CMSIS_RTOS/cmsis_os.c ****     }
 621:Middlewares/Third_Party/FreeRTOS/Source/CMSIS_RTOS/cmsis_os.c ****     else  ret.status =  osEventSignal;
 622:Middlewares/Third_Party/FreeRTOS/Source/CMSIS_RTOS/cmsis_os.c ****   }
 623:Middlewares/Third_Party/FreeRTOS/Source/CMSIS_RTOS/cmsis_os.c **** #else
 624:Middlewares/Third_Party/FreeRTOS/Source/CMSIS_RTOS/cmsis_os.c ****   (void) signals;
 625:Middlewares/Third_Party/FreeRTOS/Source/CMSIS_RTOS/cmsis_os.c ****   (void) millisec;
 626:Middlewares/Third_Party/FreeRTOS/Source/CMSIS_RTOS/cmsis_os.c **** 	
 627:Middlewares/Third_Party/FreeRTOS/Source/CMSIS_RTOS/cmsis_os.c ****   ret.status =  osErrorOS;	/* Task Notification not supported */
 628:Middlewares/Third_Party/FreeRTOS/Source/CMSIS_RTOS/cmsis_os.c **** #endif
 629:Middlewares/Third_Party/FreeRTOS/Source/CMSIS_RTOS/cmsis_os.c ****   
 630:Middlewares/Third_Party/FreeRTOS/Source/CMSIS_RTOS/cmsis_os.c ****   return ret;
 694              		.loc 1 630 0
 695 0014 04AB     		add	r3, sp, #16
 696 0016 13E90700 		ldmdb	r3, {r0, r1, r2}
 697 001a 84E80700 		stm	r4, {r0, r1, r2}
ARM GAS  C:\Users\ALEX'S~1\AppData\Local\Temp\ccjCNn9l.s 			page 26


 631:Middlewares/Third_Party/FreeRTOS/Source/CMSIS_RTOS/cmsis_os.c **** }
 698              		.loc 1 631 0
 699 001e 2046     		mov	r0, r4
 700 0020 05B0     		add	sp, sp, #20
 701              	.LCFI15:
 702              		.cfi_remember_state
 703              		.cfi_def_cfa_offset 12
 704              		@ sp needed
 705 0022 30BD     		pop	{r4, r5, pc}
 706              	.LVL42:
 707              	.L51:
 708              	.LCFI16:
 709              		.cfi_restore_state
 612:Middlewares/Third_Party/FreeRTOS/Source/CMSIS_RTOS/cmsis_os.c ****     {
 710              		.loc 1 612 0
 711 0024 1346     		mov	r3, r2
 712 0026 1546     		mov	r5, r2
 713 0028 02AA     		add	r2, sp, #8
 714              	.LVL43:
 715 002a FFF7FEFF 		bl	xTaskNotifyWait
 716              	.LVL44:
 717 002e 0128     		cmp	r0, #1
 718 0030 05D0     		beq	.L53
 614:Middlewares/Third_Party/FreeRTOS/Source/CMSIS_RTOS/cmsis_os.c ****       else  ret.status = osEventTimeout;
 719              		.loc 1 614 0
 720 0032 0DB9     		cbnz	r5, .L54
 614:Middlewares/Third_Party/FreeRTOS/Source/CMSIS_RTOS/cmsis_os.c ****       else  ret.status = osEventTimeout;
 721              		.loc 1 614 0 is_stmt 0 discriminator 1
 722 0034 0195     		str	r5, [sp, #4]
 723 0036 EDE7     		b	.L52
 724              	.L54:
 615:Middlewares/Third_Party/FreeRTOS/Source/CMSIS_RTOS/cmsis_os.c ****     }
 725              		.loc 1 615 0 is_stmt 1
 726 0038 4023     		movs	r3, #64
 727 003a 0193     		str	r3, [sp, #4]
 728 003c EAE7     		b	.L52
 729              	.L53:
 617:Middlewares/Third_Party/FreeRTOS/Source/CMSIS_RTOS/cmsis_os.c ****     {
 730              		.loc 1 617 0
 731 003e 029B     		ldr	r3, [sp, #8]
 732 0040 002B     		cmp	r3, #0
 619:Middlewares/Third_Party/FreeRTOS/Source/CMSIS_RTOS/cmsis_os.c ****     }
 733              		.loc 1 619 0
 734 0042 B4BF     		ite	lt
 735 0044 8623     		movlt	r3, #134
 621:Middlewares/Third_Party/FreeRTOS/Source/CMSIS_RTOS/cmsis_os.c ****   }
 736              		.loc 1 621 0
 737 0046 0823     		movge	r3, #8
 738 0048 0193     		str	r3, [sp, #4]
 739 004a E3E7     		b	.L52
 740              		.cfi_endproc
 741              	.LFE48:
 743              		.section	.text.osMutexCreate,"ax",%progbits
 744              		.align	1
 745              		.p2align 2,,3
 746              		.global	osMutexCreate
 747              		.syntax unified
ARM GAS  C:\Users\ALEX'S~1\AppData\Local\Temp\ccjCNn9l.s 			page 27


 748              		.thumb
 749              		.thumb_func
 750              		.fpu fpv4-sp-d16
 752              	osMutexCreate:
 753              	.LFB49:
 632:Middlewares/Third_Party/FreeRTOS/Source/CMSIS_RTOS/cmsis_os.c **** 
 633:Middlewares/Third_Party/FreeRTOS/Source/CMSIS_RTOS/cmsis_os.c **** /****************************  Mutex Management ********************************/
 634:Middlewares/Third_Party/FreeRTOS/Source/CMSIS_RTOS/cmsis_os.c **** /**
 635:Middlewares/Third_Party/FreeRTOS/Source/CMSIS_RTOS/cmsis_os.c **** * @brief  Create and Initialize a Mutex object
 636:Middlewares/Third_Party/FreeRTOS/Source/CMSIS_RTOS/cmsis_os.c **** * @param  mutex_def     mutex definition referenced with \ref osMutex.
 637:Middlewares/Third_Party/FreeRTOS/Source/CMSIS_RTOS/cmsis_os.c **** * @retval  mutex ID for reference by other functions or NULL in case of error.
 638:Middlewares/Third_Party/FreeRTOS/Source/CMSIS_RTOS/cmsis_os.c **** * @note   MUST REMAIN UNCHANGED: \b osMutexCreate shall be consistent in every CMSIS-RTOS.
 639:Middlewares/Third_Party/FreeRTOS/Source/CMSIS_RTOS/cmsis_os.c **** */
 640:Middlewares/Third_Party/FreeRTOS/Source/CMSIS_RTOS/cmsis_os.c **** osMutexId osMutexCreate (const osMutexDef_t *mutex_def)
 641:Middlewares/Third_Party/FreeRTOS/Source/CMSIS_RTOS/cmsis_os.c **** {
 754              		.loc 1 641 0
 755              		.cfi_startproc
 756              		@ args = 0, pretend = 0, frame = 0
 757              		@ frame_needed = 0, uses_anonymous_args = 0
 758              		@ link register save eliminated.
 759              	.LVL45:
 642:Middlewares/Third_Party/FreeRTOS/Source/CMSIS_RTOS/cmsis_os.c **** #if ( configUSE_MUTEXES == 1)
 643:Middlewares/Third_Party/FreeRTOS/Source/CMSIS_RTOS/cmsis_os.c **** 
 644:Middlewares/Third_Party/FreeRTOS/Source/CMSIS_RTOS/cmsis_os.c **** #if( configSUPPORT_STATIC_ALLOCATION == 1 ) && ( configSUPPORT_DYNAMIC_ALLOCATION == 1 )
 645:Middlewares/Third_Party/FreeRTOS/Source/CMSIS_RTOS/cmsis_os.c **** 
 646:Middlewares/Third_Party/FreeRTOS/Source/CMSIS_RTOS/cmsis_os.c ****   if (mutex_def->controlblock != NULL) {
 647:Middlewares/Third_Party/FreeRTOS/Source/CMSIS_RTOS/cmsis_os.c ****     return xSemaphoreCreateMutexStatic( mutex_def->controlblock );
 648:Middlewares/Third_Party/FreeRTOS/Source/CMSIS_RTOS/cmsis_os.c ****      }
 649:Middlewares/Third_Party/FreeRTOS/Source/CMSIS_RTOS/cmsis_os.c ****   else {
 650:Middlewares/Third_Party/FreeRTOS/Source/CMSIS_RTOS/cmsis_os.c ****     return xSemaphoreCreateMutex(); 
 651:Middlewares/Third_Party/FreeRTOS/Source/CMSIS_RTOS/cmsis_os.c ****   }
 652:Middlewares/Third_Party/FreeRTOS/Source/CMSIS_RTOS/cmsis_os.c **** #elif ( configSUPPORT_STATIC_ALLOCATION == 1 )
 653:Middlewares/Third_Party/FreeRTOS/Source/CMSIS_RTOS/cmsis_os.c ****   return xSemaphoreCreateMutexStatic( mutex_def->controlblock );
 654:Middlewares/Third_Party/FreeRTOS/Source/CMSIS_RTOS/cmsis_os.c **** #else  
 655:Middlewares/Third_Party/FreeRTOS/Source/CMSIS_RTOS/cmsis_os.c ****     return xSemaphoreCreateMutex(); 
 760              		.loc 1 655 0
 761 0000 0120     		movs	r0, #1
 762              	.LVL46:
 763 0002 FFF7FEBF 		b	xQueueCreateMutex
 764              	.LVL47:
 765              		.cfi_endproc
 766              	.LFE49:
 768 0006 00BF     		.section	.text.osMutexWait,"ax",%progbits
 769              		.align	1
 770              		.p2align 2,,3
 771              		.global	osMutexWait
 772              		.syntax unified
 773              		.thumb
 774              		.thumb_func
 775              		.fpu fpv4-sp-d16
 777              	osMutexWait:
 778              	.LFB50:
 656:Middlewares/Third_Party/FreeRTOS/Source/CMSIS_RTOS/cmsis_os.c **** #endif
 657:Middlewares/Third_Party/FreeRTOS/Source/CMSIS_RTOS/cmsis_os.c **** #else
 658:Middlewares/Third_Party/FreeRTOS/Source/CMSIS_RTOS/cmsis_os.c ****   return NULL;
 659:Middlewares/Third_Party/FreeRTOS/Source/CMSIS_RTOS/cmsis_os.c **** #endif
 660:Middlewares/Third_Party/FreeRTOS/Source/CMSIS_RTOS/cmsis_os.c **** }
ARM GAS  C:\Users\ALEX'S~1\AppData\Local\Temp\ccjCNn9l.s 			page 28


 661:Middlewares/Third_Party/FreeRTOS/Source/CMSIS_RTOS/cmsis_os.c **** 
 662:Middlewares/Third_Party/FreeRTOS/Source/CMSIS_RTOS/cmsis_os.c **** /**
 663:Middlewares/Third_Party/FreeRTOS/Source/CMSIS_RTOS/cmsis_os.c **** * @brief Wait until a Mutex becomes available
 664:Middlewares/Third_Party/FreeRTOS/Source/CMSIS_RTOS/cmsis_os.c **** * @param mutex_id      mutex ID obtained by \ref osMutexCreate.
 665:Middlewares/Third_Party/FreeRTOS/Source/CMSIS_RTOS/cmsis_os.c **** * @param millisec      timeout value or 0 in case of no time-out.
 666:Middlewares/Third_Party/FreeRTOS/Source/CMSIS_RTOS/cmsis_os.c **** * @retval  status code that indicates the execution status of the function.
 667:Middlewares/Third_Party/FreeRTOS/Source/CMSIS_RTOS/cmsis_os.c **** * @note   MUST REMAIN UNCHANGED: \b osMutexWait shall be consistent in every CMSIS-RTOS.
 668:Middlewares/Third_Party/FreeRTOS/Source/CMSIS_RTOS/cmsis_os.c **** */
 669:Middlewares/Third_Party/FreeRTOS/Source/CMSIS_RTOS/cmsis_os.c **** osStatus osMutexWait (osMutexId mutex_id, uint32_t millisec)
 670:Middlewares/Third_Party/FreeRTOS/Source/CMSIS_RTOS/cmsis_os.c **** {
 779              		.loc 1 670 0
 780              		.cfi_startproc
 781              		@ args = 0, pretend = 0, frame = 8
 782              		@ frame_needed = 0, uses_anonymous_args = 0
 783              	.LVL48:
 784 0000 10B5     		push	{r4, lr}
 785              	.LCFI17:
 786              		.cfi_def_cfa_offset 8
 787              		.cfi_offset 4, -8
 788              		.cfi_offset 14, -4
 789 0002 82B0     		sub	sp, sp, #8
 790              	.LCFI18:
 791              		.cfi_def_cfa_offset 16
 671:Middlewares/Third_Party/FreeRTOS/Source/CMSIS_RTOS/cmsis_os.c ****   TickType_t ticks;
 672:Middlewares/Third_Party/FreeRTOS/Source/CMSIS_RTOS/cmsis_os.c ****   portBASE_TYPE taskWoken = pdFALSE;  
 792              		.loc 1 672 0
 793 0004 0024     		movs	r4, #0
 794 0006 0194     		str	r4, [sp, #4]
 673:Middlewares/Third_Party/FreeRTOS/Source/CMSIS_RTOS/cmsis_os.c ****   
 674:Middlewares/Third_Party/FreeRTOS/Source/CMSIS_RTOS/cmsis_os.c ****   
 675:Middlewares/Third_Party/FreeRTOS/Source/CMSIS_RTOS/cmsis_os.c ****   if (mutex_id == NULL) {
 795              		.loc 1 675 0
 796 0008 10B3     		cbz	r0, .L64
 797 000a 0A46     		mov	r2, r1
 798              	.LVL49:
 799              	.LBB126:
 800              	.LBB127:
 801              	.LBB128:
 802              		.loc 2 109 0
 803              		.syntax unified
 804              	@ 109 "Drivers/CMSIS/Include/cmsis_gcc.h" 1
 805 000c EFF30583 		MRS r3, ipsr
 806              	@ 0 "" 2
 807              		.thumb
 808              		.syntax unified
 809              	.LBE128:
 810              	.LBE127:
 811              	.LBE126:
 676:Middlewares/Third_Party/FreeRTOS/Source/CMSIS_RTOS/cmsis_os.c ****     return osErrorParameter;
 677:Middlewares/Third_Party/FreeRTOS/Source/CMSIS_RTOS/cmsis_os.c ****   }
 678:Middlewares/Third_Party/FreeRTOS/Source/CMSIS_RTOS/cmsis_os.c ****   
 679:Middlewares/Third_Party/FreeRTOS/Source/CMSIS_RTOS/cmsis_os.c ****   ticks = 0;
 680:Middlewares/Third_Party/FreeRTOS/Source/CMSIS_RTOS/cmsis_os.c ****   if (millisec == osWaitForever) {
 681:Middlewares/Third_Party/FreeRTOS/Source/CMSIS_RTOS/cmsis_os.c ****     ticks = portMAX_DELAY;
 682:Middlewares/Third_Party/FreeRTOS/Source/CMSIS_RTOS/cmsis_os.c ****   }
 683:Middlewares/Third_Party/FreeRTOS/Source/CMSIS_RTOS/cmsis_os.c ****   else if (millisec != 0) {
 684:Middlewares/Third_Party/FreeRTOS/Source/CMSIS_RTOS/cmsis_os.c ****     ticks = millisec / portTICK_PERIOD_MS;
ARM GAS  C:\Users\ALEX'S~1\AppData\Local\Temp\ccjCNn9l.s 			page 29


 685:Middlewares/Third_Party/FreeRTOS/Source/CMSIS_RTOS/cmsis_os.c ****     if (ticks == 0) {
 686:Middlewares/Third_Party/FreeRTOS/Source/CMSIS_RTOS/cmsis_os.c ****       ticks = 1;
 687:Middlewares/Third_Party/FreeRTOS/Source/CMSIS_RTOS/cmsis_os.c ****     }
 688:Middlewares/Third_Party/FreeRTOS/Source/CMSIS_RTOS/cmsis_os.c ****   }
 689:Middlewares/Third_Party/FreeRTOS/Source/CMSIS_RTOS/cmsis_os.c ****   
 690:Middlewares/Third_Party/FreeRTOS/Source/CMSIS_RTOS/cmsis_os.c ****   if (inHandlerMode()) {
 812              		.loc 1 690 0
 813 0010 3BB9     		cbnz	r3, .L69
 691:Middlewares/Third_Party/FreeRTOS/Source/CMSIS_RTOS/cmsis_os.c ****     if (xSemaphoreTakeFromISR(mutex_id, &taskWoken) != pdTRUE) {
 692:Middlewares/Third_Party/FreeRTOS/Source/CMSIS_RTOS/cmsis_os.c ****       return osErrorOS;
 693:Middlewares/Third_Party/FreeRTOS/Source/CMSIS_RTOS/cmsis_os.c ****     }
 694:Middlewares/Third_Party/FreeRTOS/Source/CMSIS_RTOS/cmsis_os.c **** 	portEND_SWITCHING_ISR(taskWoken);
 695:Middlewares/Third_Party/FreeRTOS/Source/CMSIS_RTOS/cmsis_os.c ****   } 
 696:Middlewares/Third_Party/FreeRTOS/Source/CMSIS_RTOS/cmsis_os.c ****   else if (xSemaphoreTake(mutex_id, ticks) != pdTRUE) {
 814              		.loc 1 696 0
 815 0012 1946     		mov	r1, r3
 816              	.LVL50:
 817 0014 FFF7FEFF 		bl	xQueueGenericReceive
 818              	.LVL51:
 819 0018 0128     		cmp	r0, #1
 820 001a 16D1     		bne	.L63
 821              	.L62:
 697:Middlewares/Third_Party/FreeRTOS/Source/CMSIS_RTOS/cmsis_os.c ****     return osErrorOS;
 698:Middlewares/Third_Party/FreeRTOS/Source/CMSIS_RTOS/cmsis_os.c ****   }
 699:Middlewares/Third_Party/FreeRTOS/Source/CMSIS_RTOS/cmsis_os.c ****   
 700:Middlewares/Third_Party/FreeRTOS/Source/CMSIS_RTOS/cmsis_os.c ****   return osOK;
 822              		.loc 1 700 0
 823 001c 0020     		movs	r0, #0
 701:Middlewares/Third_Party/FreeRTOS/Source/CMSIS_RTOS/cmsis_os.c **** }
 824              		.loc 1 701 0
 825 001e 02B0     		add	sp, sp, #8
 826              	.LCFI19:
 827              		.cfi_remember_state
 828              		.cfi_def_cfa_offset 8
 829              		@ sp needed
 830 0020 10BD     		pop	{r4, pc}
 831              	.LVL52:
 832              	.L69:
 833              	.LCFI20:
 834              		.cfi_restore_state
 691:Middlewares/Third_Party/FreeRTOS/Source/CMSIS_RTOS/cmsis_os.c ****     if (xSemaphoreTakeFromISR(mutex_id, &taskWoken) != pdTRUE) {
 835              		.loc 1 691 0
 836 0022 01AA     		add	r2, sp, #4
 837 0024 2146     		mov	r1, r4
 838              	.LVL53:
 839 0026 FFF7FEFF 		bl	xQueueReceiveFromISR
 840              	.LVL54:
 841 002a 0128     		cmp	r0, #1
 842 002c 0DD1     		bne	.L63
 694:Middlewares/Third_Party/FreeRTOS/Source/CMSIS_RTOS/cmsis_os.c ****   } 
 843              		.loc 1 694 0
 844 002e 019B     		ldr	r3, [sp, #4]
 845 0030 002B     		cmp	r3, #0
 846 0032 F3D0     		beq	.L62
 694:Middlewares/Third_Party/FreeRTOS/Source/CMSIS_RTOS/cmsis_os.c ****   } 
 847              		.loc 1 694 0 is_stmt 0 discriminator 1
 848 0034 084B     		ldr	r3, .L70
ARM GAS  C:\Users\ALEX'S~1\AppData\Local\Temp\ccjCNn9l.s 			page 30


 849 0036 4FF08052 		mov	r2, #268435456
 850 003a 1A60     		str	r2, [r3]
 851              		.syntax unified
 852              	@ 694 "Middlewares/Third_Party/FreeRTOS/Source/CMSIS_RTOS/cmsis_os.c" 1
 853 003c BFF34F8F 		dsb
 854              	@ 0 "" 2
 855              	@ 694 "Middlewares/Third_Party/FreeRTOS/Source/CMSIS_RTOS/cmsis_os.c" 1
 856 0040 BFF36F8F 		isb
 857              	@ 0 "" 2
 700:Middlewares/Third_Party/FreeRTOS/Source/CMSIS_RTOS/cmsis_os.c **** }
 858              		.loc 1 700 0 is_stmt 1 discriminator 1
 859              		.thumb
 860              		.syntax unified
 861 0044 2046     		mov	r0, r4
 862              		.loc 1 701 0 discriminator 1
 863 0046 02B0     		add	sp, sp, #8
 864              	.LCFI21:
 865              		.cfi_remember_state
 866              		.cfi_def_cfa_offset 8
 867              		@ sp needed
 868 0048 10BD     		pop	{r4, pc}
 869              	.L63:
 870              	.LCFI22:
 871              		.cfi_restore_state
 692:Middlewares/Third_Party/FreeRTOS/Source/CMSIS_RTOS/cmsis_os.c ****     }
 872              		.loc 1 692 0
 873 004a FF20     		movs	r0, #255
 874              		.loc 1 701 0
 875 004c 02B0     		add	sp, sp, #8
 876              	.LCFI23:
 877              		.cfi_remember_state
 878              		.cfi_def_cfa_offset 8
 879              		@ sp needed
 880 004e 10BD     		pop	{r4, pc}
 881              	.LVL55:
 882              	.L64:
 883              	.LCFI24:
 884              		.cfi_restore_state
 676:Middlewares/Third_Party/FreeRTOS/Source/CMSIS_RTOS/cmsis_os.c ****   }
 885              		.loc 1 676 0
 886 0050 8020     		movs	r0, #128
 887              	.LVL56:
 888              		.loc 1 701 0
 889 0052 02B0     		add	sp, sp, #8
 890              	.LCFI25:
 891              		.cfi_def_cfa_offset 8
 892              		@ sp needed
 893 0054 10BD     		pop	{r4, pc}
 894              	.L71:
 895 0056 00BF     		.align	2
 896              	.L70:
 897 0058 04ED00E0 		.word	-536810236
 898              		.cfi_endproc
 899              	.LFE50:
 901              		.section	.text.osMutexRelease,"ax",%progbits
 902              		.align	1
 903              		.p2align 2,,3
ARM GAS  C:\Users\ALEX'S~1\AppData\Local\Temp\ccjCNn9l.s 			page 31


 904              		.global	osMutexRelease
 905              		.syntax unified
 906              		.thumb
 907              		.thumb_func
 908              		.fpu fpv4-sp-d16
 910              	osMutexRelease:
 911              	.LFB51:
 702:Middlewares/Third_Party/FreeRTOS/Source/CMSIS_RTOS/cmsis_os.c **** 
 703:Middlewares/Third_Party/FreeRTOS/Source/CMSIS_RTOS/cmsis_os.c **** /**
 704:Middlewares/Third_Party/FreeRTOS/Source/CMSIS_RTOS/cmsis_os.c **** * @brief Release a Mutex that was obtained by \ref osMutexWait
 705:Middlewares/Third_Party/FreeRTOS/Source/CMSIS_RTOS/cmsis_os.c **** * @param mutex_id      mutex ID obtained by \ref osMutexCreate.
 706:Middlewares/Third_Party/FreeRTOS/Source/CMSIS_RTOS/cmsis_os.c **** * @retval  status code that indicates the execution status of the function.
 707:Middlewares/Third_Party/FreeRTOS/Source/CMSIS_RTOS/cmsis_os.c **** * @note   MUST REMAIN UNCHANGED: \b osMutexRelease shall be consistent in every CMSIS-RTOS.
 708:Middlewares/Third_Party/FreeRTOS/Source/CMSIS_RTOS/cmsis_os.c **** */
 709:Middlewares/Third_Party/FreeRTOS/Source/CMSIS_RTOS/cmsis_os.c **** osStatus osMutexRelease (osMutexId mutex_id)
 710:Middlewares/Third_Party/FreeRTOS/Source/CMSIS_RTOS/cmsis_os.c **** {
 912              		.loc 1 710 0
 913              		.cfi_startproc
 914              		@ args = 0, pretend = 0, frame = 8
 915              		@ frame_needed = 0, uses_anonymous_args = 0
 916              	.LVL57:
 917 0000 10B5     		push	{r4, lr}
 918              	.LCFI26:
 919              		.cfi_def_cfa_offset 8
 920              		.cfi_offset 4, -8
 921              		.cfi_offset 14, -4
 922 0002 82B0     		sub	sp, sp, #8
 923              	.LCFI27:
 924              		.cfi_def_cfa_offset 16
 711:Middlewares/Third_Party/FreeRTOS/Source/CMSIS_RTOS/cmsis_os.c ****   osStatus result = osOK;
 712:Middlewares/Third_Party/FreeRTOS/Source/CMSIS_RTOS/cmsis_os.c ****   portBASE_TYPE taskWoken = pdFALSE;
 925              		.loc 1 712 0
 926 0004 0024     		movs	r4, #0
 927 0006 0194     		str	r4, [sp, #4]
 928              	.LBB132:
 929              	.LBB133:
 930              	.LBB134:
 931              		.loc 2 109 0
 932              		.syntax unified
 933              	@ 109 "Drivers/CMSIS/Include/cmsis_gcc.h" 1
 934 0008 EFF30583 		MRS r3, ipsr
 935              	@ 0 "" 2
 936              		.thumb
 937              		.syntax unified
 938              	.LBE134:
 939              	.LBE133:
 940              	.LBE132:
 713:Middlewares/Third_Party/FreeRTOS/Source/CMSIS_RTOS/cmsis_os.c ****   
 714:Middlewares/Third_Party/FreeRTOS/Source/CMSIS_RTOS/cmsis_os.c ****   if (inHandlerMode()) {
 941              		.loc 1 714 0
 942 000c 4BB1     		cbz	r3, .L73
 715:Middlewares/Third_Party/FreeRTOS/Source/CMSIS_RTOS/cmsis_os.c ****     if (xSemaphoreGiveFromISR(mutex_id, &taskWoken) != pdTRUE) {
 943              		.loc 1 715 0
 944 000e 01A9     		add	r1, sp, #4
 945 0010 FFF7FEFF 		bl	xQueueGiveFromISR
 946              	.LVL58:
 947 0014 0128     		cmp	r0, #1
ARM GAS  C:\Users\ALEX'S~1\AppData\Local\Temp\ccjCNn9l.s 			page 32


 948 0016 0AD1     		bne	.L74
 716:Middlewares/Third_Party/FreeRTOS/Source/CMSIS_RTOS/cmsis_os.c ****       return osErrorOS;
 717:Middlewares/Third_Party/FreeRTOS/Source/CMSIS_RTOS/cmsis_os.c ****     }
 718:Middlewares/Third_Party/FreeRTOS/Source/CMSIS_RTOS/cmsis_os.c ****     portEND_SWITCHING_ISR(taskWoken);
 949              		.loc 1 718 0
 950 0018 019B     		ldr	r3, [sp, #4]
 951 001a 5BB9     		cbnz	r3, .L75
 952              	.L77:
 711:Middlewares/Third_Party/FreeRTOS/Source/CMSIS_RTOS/cmsis_os.c ****   portBASE_TYPE taskWoken = pdFALSE;
 953              		.loc 1 711 0
 954 001c 0020     		movs	r0, #0
 719:Middlewares/Third_Party/FreeRTOS/Source/CMSIS_RTOS/cmsis_os.c ****   }
 720:Middlewares/Third_Party/FreeRTOS/Source/CMSIS_RTOS/cmsis_os.c ****   else if (xSemaphoreGive(mutex_id) != pdTRUE) 
 721:Middlewares/Third_Party/FreeRTOS/Source/CMSIS_RTOS/cmsis_os.c ****   {
 722:Middlewares/Third_Party/FreeRTOS/Source/CMSIS_RTOS/cmsis_os.c ****     result = osErrorOS;
 723:Middlewares/Third_Party/FreeRTOS/Source/CMSIS_RTOS/cmsis_os.c ****   }
 724:Middlewares/Third_Party/FreeRTOS/Source/CMSIS_RTOS/cmsis_os.c ****   return result;
 725:Middlewares/Third_Party/FreeRTOS/Source/CMSIS_RTOS/cmsis_os.c **** }
 955              		.loc 1 725 0
 956 001e 02B0     		add	sp, sp, #8
 957              	.LCFI28:
 958              		.cfi_remember_state
 959              		.cfi_def_cfa_offset 8
 960              		@ sp needed
 961 0020 10BD     		pop	{r4, pc}
 962              	.LVL59:
 963              	.L73:
 964              	.LCFI29:
 965              		.cfi_restore_state
 720:Middlewares/Third_Party/FreeRTOS/Source/CMSIS_RTOS/cmsis_os.c ****   {
 966              		.loc 1 720 0
 967 0022 1A46     		mov	r2, r3
 968 0024 1946     		mov	r1, r3
 969 0026 FFF7FEFF 		bl	xQueueGenericSend
 970              	.LVL60:
 971 002a 0128     		cmp	r0, #1
 972 002c F6D0     		beq	.L77
 973              	.L74:
 974              	.LVL61:
 722:Middlewares/Third_Party/FreeRTOS/Source/CMSIS_RTOS/cmsis_os.c ****   }
 975              		.loc 1 722 0
 976 002e FF20     		movs	r0, #255
 977              		.loc 1 725 0
 978 0030 02B0     		add	sp, sp, #8
 979              	.LCFI30:
 980              		.cfi_remember_state
 981              		.cfi_def_cfa_offset 8
 982              		@ sp needed
 983 0032 10BD     		pop	{r4, pc}
 984              	.LVL62:
 985              	.L75:
 986              	.LCFI31:
 987              		.cfi_restore_state
 718:Middlewares/Third_Party/FreeRTOS/Source/CMSIS_RTOS/cmsis_os.c ****   }
 988              		.loc 1 718 0 discriminator 1
 989 0034 054B     		ldr	r3, .L82
 990 0036 4FF08052 		mov	r2, #268435456
ARM GAS  C:\Users\ALEX'S~1\AppData\Local\Temp\ccjCNn9l.s 			page 33


 991 003a 1A60     		str	r2, [r3]
 992              		.syntax unified
 993              	@ 718 "Middlewares/Third_Party/FreeRTOS/Source/CMSIS_RTOS/cmsis_os.c" 1
 994 003c BFF34F8F 		dsb
 995              	@ 0 "" 2
 996              	@ 718 "Middlewares/Third_Party/FreeRTOS/Source/CMSIS_RTOS/cmsis_os.c" 1
 997 0040 BFF36F8F 		isb
 998              	@ 0 "" 2
 711:Middlewares/Third_Party/FreeRTOS/Source/CMSIS_RTOS/cmsis_os.c ****   portBASE_TYPE taskWoken = pdFALSE;
 999              		.loc 1 711 0 discriminator 1
 1000              		.thumb
 1001              		.syntax unified
 1002 0044 2046     		mov	r0, r4
 1003              		.loc 1 725 0 discriminator 1
 1004 0046 02B0     		add	sp, sp, #8
 1005              	.LCFI32:
 1006              		.cfi_def_cfa_offset 8
 1007              		@ sp needed
 1008 0048 10BD     		pop	{r4, pc}
 1009              	.L83:
 1010 004a 00BF     		.align	2
 1011              	.L82:
 1012 004c 04ED00E0 		.word	-536810236
 1013              		.cfi_endproc
 1014              	.LFE51:
 1016              		.section	.text.osMutexDelete,"ax",%progbits
 1017              		.align	1
 1018              		.p2align 2,,3
 1019              		.global	osMutexDelete
 1020              		.syntax unified
 1021              		.thumb
 1022              		.thumb_func
 1023              		.fpu fpv4-sp-d16
 1025              	osMutexDelete:
 1026              	.LFB52:
 726:Middlewares/Third_Party/FreeRTOS/Source/CMSIS_RTOS/cmsis_os.c **** 
 727:Middlewares/Third_Party/FreeRTOS/Source/CMSIS_RTOS/cmsis_os.c **** /**
 728:Middlewares/Third_Party/FreeRTOS/Source/CMSIS_RTOS/cmsis_os.c **** * @brief Delete a Mutex
 729:Middlewares/Third_Party/FreeRTOS/Source/CMSIS_RTOS/cmsis_os.c **** * @param mutex_id  mutex ID obtained by \ref osMutexCreate.
 730:Middlewares/Third_Party/FreeRTOS/Source/CMSIS_RTOS/cmsis_os.c **** * @retval  status code that indicates the execution status of the function.
 731:Middlewares/Third_Party/FreeRTOS/Source/CMSIS_RTOS/cmsis_os.c **** * @note   MUST REMAIN UNCHANGED: \b osMutexDelete shall be consistent in every CMSIS-RTOS.
 732:Middlewares/Third_Party/FreeRTOS/Source/CMSIS_RTOS/cmsis_os.c **** */
 733:Middlewares/Third_Party/FreeRTOS/Source/CMSIS_RTOS/cmsis_os.c **** osStatus osMutexDelete (osMutexId mutex_id)
 734:Middlewares/Third_Party/FreeRTOS/Source/CMSIS_RTOS/cmsis_os.c **** {
 1027              		.loc 1 734 0
 1028              		.cfi_startproc
 1029              		@ args = 0, pretend = 0, frame = 0
 1030              		@ frame_needed = 0, uses_anonymous_args = 0
 1031              	.LVL63:
 1032 0000 10B5     		push	{r4, lr}
 1033              	.LCFI33:
 1034              		.cfi_def_cfa_offset 8
 1035              		.cfi_offset 4, -8
 1036              		.cfi_offset 14, -4
 1037              	.LBB138:
 1038              	.LBB139:
 1039              	.LBB140:
ARM GAS  C:\Users\ALEX'S~1\AppData\Local\Temp\ccjCNn9l.s 			page 34


 1040              		.loc 2 109 0
 1041              		.syntax unified
 1042              	@ 109 "Drivers/CMSIS/Include/cmsis_gcc.h" 1
 1043 0002 EFF30584 		MRS r4, ipsr
 1044              	@ 0 "" 2
 1045              		.thumb
 1046              		.syntax unified
 1047              	.LBE140:
 1048              	.LBE139:
 1049              	.LBE138:
 735:Middlewares/Third_Party/FreeRTOS/Source/CMSIS_RTOS/cmsis_os.c ****   if (inHandlerMode()) {
 1050              		.loc 1 735 0
 1051 0006 1CB9     		cbnz	r4, .L86
 736:Middlewares/Third_Party/FreeRTOS/Source/CMSIS_RTOS/cmsis_os.c ****     return osErrorISR;
 737:Middlewares/Third_Party/FreeRTOS/Source/CMSIS_RTOS/cmsis_os.c ****   }
 738:Middlewares/Third_Party/FreeRTOS/Source/CMSIS_RTOS/cmsis_os.c **** 
 739:Middlewares/Third_Party/FreeRTOS/Source/CMSIS_RTOS/cmsis_os.c ****   vQueueDelete(mutex_id);
 1052              		.loc 1 739 0
 1053 0008 FFF7FEFF 		bl	vQueueDelete
 1054              	.LVL64:
 740:Middlewares/Third_Party/FreeRTOS/Source/CMSIS_RTOS/cmsis_os.c **** 
 741:Middlewares/Third_Party/FreeRTOS/Source/CMSIS_RTOS/cmsis_os.c ****   return osOK;
 1055              		.loc 1 741 0
 1056 000c 2046     		mov	r0, r4
 742:Middlewares/Third_Party/FreeRTOS/Source/CMSIS_RTOS/cmsis_os.c **** }
 1057              		.loc 1 742 0
 1058 000e 10BD     		pop	{r4, pc}
 1059              	.LVL65:
 1060              	.L86:
 736:Middlewares/Third_Party/FreeRTOS/Source/CMSIS_RTOS/cmsis_os.c ****     return osErrorISR;
 1061              		.loc 1 736 0
 1062 0010 8220     		movs	r0, #130
 1063              	.LVL66:
 1064              		.loc 1 742 0
 1065 0012 10BD     		pop	{r4, pc}
 1066              		.cfi_endproc
 1067              	.LFE52:
 1069              		.section	.text.osSemaphoreCreate,"ax",%progbits
 1070              		.align	1
 1071              		.p2align 2,,3
 1072              		.global	osSemaphoreCreate
 1073              		.syntax unified
 1074              		.thumb
 1075              		.thumb_func
 1076              		.fpu fpv4-sp-d16
 1078              	osSemaphoreCreate:
 1079              	.LFB53:
 743:Middlewares/Third_Party/FreeRTOS/Source/CMSIS_RTOS/cmsis_os.c **** 
 744:Middlewares/Third_Party/FreeRTOS/Source/CMSIS_RTOS/cmsis_os.c **** /********************  Semaphore Management Functions **************************/
 745:Middlewares/Third_Party/FreeRTOS/Source/CMSIS_RTOS/cmsis_os.c **** 
 746:Middlewares/Third_Party/FreeRTOS/Source/CMSIS_RTOS/cmsis_os.c **** #if (defined (osFeature_Semaphore)  &&  (osFeature_Semaphore != 0))
 747:Middlewares/Third_Party/FreeRTOS/Source/CMSIS_RTOS/cmsis_os.c **** 
 748:Middlewares/Third_Party/FreeRTOS/Source/CMSIS_RTOS/cmsis_os.c **** /**
 749:Middlewares/Third_Party/FreeRTOS/Source/CMSIS_RTOS/cmsis_os.c **** * @brief Create and Initialize a Semaphore object used for managing resources
 750:Middlewares/Third_Party/FreeRTOS/Source/CMSIS_RTOS/cmsis_os.c **** * @param semaphore_def semaphore definition referenced with \ref osSemaphore.
 751:Middlewares/Third_Party/FreeRTOS/Source/CMSIS_RTOS/cmsis_os.c **** * @param count         number of available resources.
 752:Middlewares/Third_Party/FreeRTOS/Source/CMSIS_RTOS/cmsis_os.c **** * @retval  semaphore ID for reference by other functions or NULL in case of error.
ARM GAS  C:\Users\ALEX'S~1\AppData\Local\Temp\ccjCNn9l.s 			page 35


 753:Middlewares/Third_Party/FreeRTOS/Source/CMSIS_RTOS/cmsis_os.c **** * @note   MUST REMAIN UNCHANGED: \b osSemaphoreCreate shall be consistent in every CMSIS-RTOS.
 754:Middlewares/Third_Party/FreeRTOS/Source/CMSIS_RTOS/cmsis_os.c **** */
 755:Middlewares/Third_Party/FreeRTOS/Source/CMSIS_RTOS/cmsis_os.c **** osSemaphoreId osSemaphoreCreate (const osSemaphoreDef_t *semaphore_def, int32_t count)
 756:Middlewares/Third_Party/FreeRTOS/Source/CMSIS_RTOS/cmsis_os.c **** { 
 1080              		.loc 1 756 0
 1081              		.cfi_startproc
 1082              		@ args = 0, pretend = 0, frame = 0
 1083              		@ frame_needed = 0, uses_anonymous_args = 0
 1084              	.LVL67:
 757:Middlewares/Third_Party/FreeRTOS/Source/CMSIS_RTOS/cmsis_os.c **** #if( configSUPPORT_STATIC_ALLOCATION == 1 ) && ( configSUPPORT_DYNAMIC_ALLOCATION == 1 )
 758:Middlewares/Third_Party/FreeRTOS/Source/CMSIS_RTOS/cmsis_os.c **** 
 759:Middlewares/Third_Party/FreeRTOS/Source/CMSIS_RTOS/cmsis_os.c ****   osSemaphoreId sema;
 760:Middlewares/Third_Party/FreeRTOS/Source/CMSIS_RTOS/cmsis_os.c ****   
 761:Middlewares/Third_Party/FreeRTOS/Source/CMSIS_RTOS/cmsis_os.c ****   if (semaphore_def->controlblock != NULL){
 762:Middlewares/Third_Party/FreeRTOS/Source/CMSIS_RTOS/cmsis_os.c ****     if (count == 1) {
 763:Middlewares/Third_Party/FreeRTOS/Source/CMSIS_RTOS/cmsis_os.c ****       return xSemaphoreCreateBinaryStatic( semaphore_def->controlblock );
 764:Middlewares/Third_Party/FreeRTOS/Source/CMSIS_RTOS/cmsis_os.c ****     }
 765:Middlewares/Third_Party/FreeRTOS/Source/CMSIS_RTOS/cmsis_os.c ****     else {
 766:Middlewares/Third_Party/FreeRTOS/Source/CMSIS_RTOS/cmsis_os.c **** #if (configUSE_COUNTING_SEMAPHORES == 1 )
 767:Middlewares/Third_Party/FreeRTOS/Source/CMSIS_RTOS/cmsis_os.c ****       return xSemaphoreCreateCountingStatic( count, count, semaphore_def->controlblock );
 768:Middlewares/Third_Party/FreeRTOS/Source/CMSIS_RTOS/cmsis_os.c **** #else
 769:Middlewares/Third_Party/FreeRTOS/Source/CMSIS_RTOS/cmsis_os.c ****       return NULL;
 770:Middlewares/Third_Party/FreeRTOS/Source/CMSIS_RTOS/cmsis_os.c **** #endif
 771:Middlewares/Third_Party/FreeRTOS/Source/CMSIS_RTOS/cmsis_os.c ****     }
 772:Middlewares/Third_Party/FreeRTOS/Source/CMSIS_RTOS/cmsis_os.c ****   }
 773:Middlewares/Third_Party/FreeRTOS/Source/CMSIS_RTOS/cmsis_os.c ****   else {
 774:Middlewares/Third_Party/FreeRTOS/Source/CMSIS_RTOS/cmsis_os.c ****     if (count == 1) {
 775:Middlewares/Third_Party/FreeRTOS/Source/CMSIS_RTOS/cmsis_os.c ****       vSemaphoreCreateBinary(sema);
 776:Middlewares/Third_Party/FreeRTOS/Source/CMSIS_RTOS/cmsis_os.c ****       return sema;
 777:Middlewares/Third_Party/FreeRTOS/Source/CMSIS_RTOS/cmsis_os.c ****     }
 778:Middlewares/Third_Party/FreeRTOS/Source/CMSIS_RTOS/cmsis_os.c ****     else {
 779:Middlewares/Third_Party/FreeRTOS/Source/CMSIS_RTOS/cmsis_os.c **** #if (configUSE_COUNTING_SEMAPHORES == 1 )	
 780:Middlewares/Third_Party/FreeRTOS/Source/CMSIS_RTOS/cmsis_os.c ****       return xSemaphoreCreateCounting(count, count);
 781:Middlewares/Third_Party/FreeRTOS/Source/CMSIS_RTOS/cmsis_os.c **** #else
 782:Middlewares/Third_Party/FreeRTOS/Source/CMSIS_RTOS/cmsis_os.c ****       return NULL;
 783:Middlewares/Third_Party/FreeRTOS/Source/CMSIS_RTOS/cmsis_os.c **** #endif    
 784:Middlewares/Third_Party/FreeRTOS/Source/CMSIS_RTOS/cmsis_os.c ****     }
 785:Middlewares/Third_Party/FreeRTOS/Source/CMSIS_RTOS/cmsis_os.c ****   }
 786:Middlewares/Third_Party/FreeRTOS/Source/CMSIS_RTOS/cmsis_os.c **** #elif ( configSUPPORT_STATIC_ALLOCATION == 1 ) // configSUPPORT_DYNAMIC_ALLOCATION == 0
 787:Middlewares/Third_Party/FreeRTOS/Source/CMSIS_RTOS/cmsis_os.c ****   if(count == 1) {
 788:Middlewares/Third_Party/FreeRTOS/Source/CMSIS_RTOS/cmsis_os.c ****     return xSemaphoreCreateBinaryStatic( semaphore_def->controlblock );
 789:Middlewares/Third_Party/FreeRTOS/Source/CMSIS_RTOS/cmsis_os.c ****   }
 790:Middlewares/Third_Party/FreeRTOS/Source/CMSIS_RTOS/cmsis_os.c ****   else
 791:Middlewares/Third_Party/FreeRTOS/Source/CMSIS_RTOS/cmsis_os.c ****   {
 792:Middlewares/Third_Party/FreeRTOS/Source/CMSIS_RTOS/cmsis_os.c **** #if (configUSE_COUNTING_SEMAPHORES == 1 )
 793:Middlewares/Third_Party/FreeRTOS/Source/CMSIS_RTOS/cmsis_os.c ****       return xSemaphoreCreateCountingStatic( count, count, semaphore_def->controlblock );
 794:Middlewares/Third_Party/FreeRTOS/Source/CMSIS_RTOS/cmsis_os.c **** #else
 795:Middlewares/Third_Party/FreeRTOS/Source/CMSIS_RTOS/cmsis_os.c ****       return NULL;
 796:Middlewares/Third_Party/FreeRTOS/Source/CMSIS_RTOS/cmsis_os.c **** #endif    
 797:Middlewares/Third_Party/FreeRTOS/Source/CMSIS_RTOS/cmsis_os.c ****   }
 798:Middlewares/Third_Party/FreeRTOS/Source/CMSIS_RTOS/cmsis_os.c **** #else  // configSUPPORT_STATIC_ALLOCATION == 0  && configSUPPORT_DYNAMIC_ALLOCATION == 1
 799:Middlewares/Third_Party/FreeRTOS/Source/CMSIS_RTOS/cmsis_os.c ****   osSemaphoreId sema;
 800:Middlewares/Third_Party/FreeRTOS/Source/CMSIS_RTOS/cmsis_os.c ****  
 801:Middlewares/Third_Party/FreeRTOS/Source/CMSIS_RTOS/cmsis_os.c ****   if (count == 1) {
 1085              		.loc 1 801 0
 1086 0000 0129     		cmp	r1, #1
 756:Middlewares/Third_Party/FreeRTOS/Source/CMSIS_RTOS/cmsis_os.c **** #if( configSUPPORT_STATIC_ALLOCATION == 1 ) && ( configSUPPORT_DYNAMIC_ALLOCATION == 1 )
ARM GAS  C:\Users\ALEX'S~1\AppData\Local\Temp\ccjCNn9l.s 			page 36


 1087              		.loc 1 756 0
 1088 0002 10B5     		push	{r4, lr}
 1089              	.LCFI34:
 1090              		.cfi_def_cfa_offset 8
 1091              		.cfi_offset 4, -8
 1092              		.cfi_offset 14, -4
 1093              		.loc 1 801 0
 1094 0004 0DD1     		bne	.L90
 1095 0006 0846     		mov	r0, r1
 1096              	.LVL68:
 802:Middlewares/Third_Party/FreeRTOS/Source/CMSIS_RTOS/cmsis_os.c ****     vSemaphoreCreateBinary(sema);
 1097              		.loc 1 802 0
 1098 0008 0322     		movs	r2, #3
 1099 000a 0021     		movs	r1, #0
 1100              	.LVL69:
 1101 000c FFF7FEFF 		bl	xQueueGenericCreate
 1102              	.LVL70:
 1103 0010 0446     		mov	r4, r0
 1104 0012 20B1     		cbz	r0, .L88
 1105              		.loc 1 802 0 is_stmt 0 discriminator 1
 1106 0014 0023     		movs	r3, #0
 1107 0016 1A46     		mov	r2, r3
 1108 0018 1946     		mov	r1, r3
 1109 001a FFF7FEFF 		bl	xQueueGenericSend
 1110              	.LVL71:
 1111              	.L88:
 803:Middlewares/Third_Party/FreeRTOS/Source/CMSIS_RTOS/cmsis_os.c ****     return sema;
 804:Middlewares/Third_Party/FreeRTOS/Source/CMSIS_RTOS/cmsis_os.c ****   }
 805:Middlewares/Third_Party/FreeRTOS/Source/CMSIS_RTOS/cmsis_os.c ****   else {
 806:Middlewares/Third_Party/FreeRTOS/Source/CMSIS_RTOS/cmsis_os.c **** #if (configUSE_COUNTING_SEMAPHORES == 1 )	
 807:Middlewares/Third_Party/FreeRTOS/Source/CMSIS_RTOS/cmsis_os.c ****     return xSemaphoreCreateCounting(count, count);
 808:Middlewares/Third_Party/FreeRTOS/Source/CMSIS_RTOS/cmsis_os.c **** #else
 809:Middlewares/Third_Party/FreeRTOS/Source/CMSIS_RTOS/cmsis_os.c ****     return NULL;
 810:Middlewares/Third_Party/FreeRTOS/Source/CMSIS_RTOS/cmsis_os.c **** #endif
 811:Middlewares/Third_Party/FreeRTOS/Source/CMSIS_RTOS/cmsis_os.c ****   }
 812:Middlewares/Third_Party/FreeRTOS/Source/CMSIS_RTOS/cmsis_os.c **** #endif
 813:Middlewares/Third_Party/FreeRTOS/Source/CMSIS_RTOS/cmsis_os.c **** }
 1112              		.loc 1 813 0 is_stmt 1
 1113 001e 2046     		mov	r0, r4
 1114 0020 10BD     		pop	{r4, pc}
 1115              	.LVL72:
 1116              	.L90:
 809:Middlewares/Third_Party/FreeRTOS/Source/CMSIS_RTOS/cmsis_os.c **** #endif
 1117              		.loc 1 809 0
 1118 0022 0024     		movs	r4, #0
 1119              		.loc 1 813 0
 1120 0024 2046     		mov	r0, r4
 1121              	.LVL73:
 1122 0026 10BD     		pop	{r4, pc}
 1123              		.cfi_endproc
 1124              	.LFE53:
 1126              		.section	.text.osSemaphoreWait,"ax",%progbits
 1127              		.align	1
 1128              		.p2align 2,,3
 1129              		.global	osSemaphoreWait
 1130              		.syntax unified
 1131              		.thumb
ARM GAS  C:\Users\ALEX'S~1\AppData\Local\Temp\ccjCNn9l.s 			page 37


 1132              		.thumb_func
 1133              		.fpu fpv4-sp-d16
 1135              	osSemaphoreWait:
 1136              	.LFB54:
 814:Middlewares/Third_Party/FreeRTOS/Source/CMSIS_RTOS/cmsis_os.c **** 
 815:Middlewares/Third_Party/FreeRTOS/Source/CMSIS_RTOS/cmsis_os.c **** /**
 816:Middlewares/Third_Party/FreeRTOS/Source/CMSIS_RTOS/cmsis_os.c **** * @brief Wait until a Semaphore token becomes available
 817:Middlewares/Third_Party/FreeRTOS/Source/CMSIS_RTOS/cmsis_os.c **** * @param  semaphore_id  semaphore object referenced with \ref osSemaphore.
 818:Middlewares/Third_Party/FreeRTOS/Source/CMSIS_RTOS/cmsis_os.c **** * @param  millisec      timeout value or 0 in case of no time-out.
 819:Middlewares/Third_Party/FreeRTOS/Source/CMSIS_RTOS/cmsis_os.c **** * @retval  number of available tokens, or -1 in case of incorrect parameters.
 820:Middlewares/Third_Party/FreeRTOS/Source/CMSIS_RTOS/cmsis_os.c **** * @note   MUST REMAIN UNCHANGED: \b osSemaphoreWait shall be consistent in every CMSIS-RTOS.
 821:Middlewares/Third_Party/FreeRTOS/Source/CMSIS_RTOS/cmsis_os.c **** */
 822:Middlewares/Third_Party/FreeRTOS/Source/CMSIS_RTOS/cmsis_os.c **** int32_t osSemaphoreWait (osSemaphoreId semaphore_id, uint32_t millisec)
 823:Middlewares/Third_Party/FreeRTOS/Source/CMSIS_RTOS/cmsis_os.c **** {
 1137              		.loc 1 823 0
 1138              		.cfi_startproc
 1139              		@ args = 0, pretend = 0, frame = 8
 1140              		@ frame_needed = 0, uses_anonymous_args = 0
 1141              	.LVL74:
 1142 0000 10B5     		push	{r4, lr}
 1143              	.LCFI35:
 1144              		.cfi_def_cfa_offset 8
 1145              		.cfi_offset 4, -8
 1146              		.cfi_offset 14, -4
 1147 0002 82B0     		sub	sp, sp, #8
 1148              	.LCFI36:
 1149              		.cfi_def_cfa_offset 16
 824:Middlewares/Third_Party/FreeRTOS/Source/CMSIS_RTOS/cmsis_os.c ****   TickType_t ticks;
 825:Middlewares/Third_Party/FreeRTOS/Source/CMSIS_RTOS/cmsis_os.c ****   portBASE_TYPE taskWoken = pdFALSE;  
 1150              		.loc 1 825 0
 1151 0004 0024     		movs	r4, #0
 1152 0006 0194     		str	r4, [sp, #4]
 826:Middlewares/Third_Party/FreeRTOS/Source/CMSIS_RTOS/cmsis_os.c ****   
 827:Middlewares/Third_Party/FreeRTOS/Source/CMSIS_RTOS/cmsis_os.c ****   
 828:Middlewares/Third_Party/FreeRTOS/Source/CMSIS_RTOS/cmsis_os.c ****   if (semaphore_id == NULL) {
 1153              		.loc 1 828 0
 1154 0008 10B3     		cbz	r0, .L101
 1155 000a 0A46     		mov	r2, r1
 1156              	.LVL75:
 1157              	.LBB141:
 1158              	.LBB142:
 1159              	.LBB143:
 1160              		.loc 2 109 0
 1161              		.syntax unified
 1162              	@ 109 "Drivers/CMSIS/Include/cmsis_gcc.h" 1
 1163 000c EFF30583 		MRS r3, ipsr
 1164              	@ 0 "" 2
 1165              		.thumb
 1166              		.syntax unified
 1167              	.LBE143:
 1168              	.LBE142:
 1169              	.LBE141:
 829:Middlewares/Third_Party/FreeRTOS/Source/CMSIS_RTOS/cmsis_os.c ****     return osErrorParameter;
 830:Middlewares/Third_Party/FreeRTOS/Source/CMSIS_RTOS/cmsis_os.c ****   }
 831:Middlewares/Third_Party/FreeRTOS/Source/CMSIS_RTOS/cmsis_os.c ****   
 832:Middlewares/Third_Party/FreeRTOS/Source/CMSIS_RTOS/cmsis_os.c ****   ticks = 0;
 833:Middlewares/Third_Party/FreeRTOS/Source/CMSIS_RTOS/cmsis_os.c ****   if (millisec == osWaitForever) {
ARM GAS  C:\Users\ALEX'S~1\AppData\Local\Temp\ccjCNn9l.s 			page 38


 834:Middlewares/Third_Party/FreeRTOS/Source/CMSIS_RTOS/cmsis_os.c ****     ticks = portMAX_DELAY;
 835:Middlewares/Third_Party/FreeRTOS/Source/CMSIS_RTOS/cmsis_os.c ****   }
 836:Middlewares/Third_Party/FreeRTOS/Source/CMSIS_RTOS/cmsis_os.c ****   else if (millisec != 0) {
 837:Middlewares/Third_Party/FreeRTOS/Source/CMSIS_RTOS/cmsis_os.c ****     ticks = millisec / portTICK_PERIOD_MS;
 838:Middlewares/Third_Party/FreeRTOS/Source/CMSIS_RTOS/cmsis_os.c ****     if (ticks == 0) {
 839:Middlewares/Third_Party/FreeRTOS/Source/CMSIS_RTOS/cmsis_os.c ****       ticks = 1;
 840:Middlewares/Third_Party/FreeRTOS/Source/CMSIS_RTOS/cmsis_os.c ****     }
 841:Middlewares/Third_Party/FreeRTOS/Source/CMSIS_RTOS/cmsis_os.c ****   }
 842:Middlewares/Third_Party/FreeRTOS/Source/CMSIS_RTOS/cmsis_os.c ****   
 843:Middlewares/Third_Party/FreeRTOS/Source/CMSIS_RTOS/cmsis_os.c ****   if (inHandlerMode()) {
 1170              		.loc 1 843 0
 1171 0010 3BB9     		cbnz	r3, .L106
 844:Middlewares/Third_Party/FreeRTOS/Source/CMSIS_RTOS/cmsis_os.c ****     if (xSemaphoreTakeFromISR(semaphore_id, &taskWoken) != pdTRUE) {
 845:Middlewares/Third_Party/FreeRTOS/Source/CMSIS_RTOS/cmsis_os.c ****       return osErrorOS;
 846:Middlewares/Third_Party/FreeRTOS/Source/CMSIS_RTOS/cmsis_os.c ****     }
 847:Middlewares/Third_Party/FreeRTOS/Source/CMSIS_RTOS/cmsis_os.c **** 	portEND_SWITCHING_ISR(taskWoken);
 848:Middlewares/Third_Party/FreeRTOS/Source/CMSIS_RTOS/cmsis_os.c ****   }  
 849:Middlewares/Third_Party/FreeRTOS/Source/CMSIS_RTOS/cmsis_os.c ****   else if (xSemaphoreTake(semaphore_id, ticks) != pdTRUE) {
 1172              		.loc 1 849 0
 1173 0012 1946     		mov	r1, r3
 1174              	.LVL76:
 1175 0014 FFF7FEFF 		bl	xQueueGenericReceive
 1176              	.LVL77:
 1177 0018 0128     		cmp	r0, #1
 1178 001a 16D1     		bne	.L100
 1179              	.L99:
 850:Middlewares/Third_Party/FreeRTOS/Source/CMSIS_RTOS/cmsis_os.c ****     return osErrorOS;
 851:Middlewares/Third_Party/FreeRTOS/Source/CMSIS_RTOS/cmsis_os.c ****   }
 852:Middlewares/Third_Party/FreeRTOS/Source/CMSIS_RTOS/cmsis_os.c ****   
 853:Middlewares/Third_Party/FreeRTOS/Source/CMSIS_RTOS/cmsis_os.c ****   return osOK;
 1180              		.loc 1 853 0
 1181 001c 0020     		movs	r0, #0
 854:Middlewares/Third_Party/FreeRTOS/Source/CMSIS_RTOS/cmsis_os.c **** }
 1182              		.loc 1 854 0
 1183 001e 02B0     		add	sp, sp, #8
 1184              	.LCFI37:
 1185              		.cfi_remember_state
 1186              		.cfi_def_cfa_offset 8
 1187              		@ sp needed
 1188 0020 10BD     		pop	{r4, pc}
 1189              	.LVL78:
 1190              	.L106:
 1191              	.LCFI38:
 1192              		.cfi_restore_state
 844:Middlewares/Third_Party/FreeRTOS/Source/CMSIS_RTOS/cmsis_os.c ****     if (xSemaphoreTakeFromISR(semaphore_id, &taskWoken) != pdTRUE) {
 1193              		.loc 1 844 0
 1194 0022 01AA     		add	r2, sp, #4
 1195 0024 2146     		mov	r1, r4
 1196              	.LVL79:
 1197 0026 FFF7FEFF 		bl	xQueueReceiveFromISR
 1198              	.LVL80:
 1199 002a 0128     		cmp	r0, #1
 1200 002c 0DD1     		bne	.L100
 847:Middlewares/Third_Party/FreeRTOS/Source/CMSIS_RTOS/cmsis_os.c ****   }  
 1201              		.loc 1 847 0
 1202 002e 019B     		ldr	r3, [sp, #4]
 1203 0030 002B     		cmp	r3, #0
ARM GAS  C:\Users\ALEX'S~1\AppData\Local\Temp\ccjCNn9l.s 			page 39


 1204 0032 F3D0     		beq	.L99
 847:Middlewares/Third_Party/FreeRTOS/Source/CMSIS_RTOS/cmsis_os.c ****   }  
 1205              		.loc 1 847 0 is_stmt 0 discriminator 1
 1206 0034 084B     		ldr	r3, .L107
 1207 0036 4FF08052 		mov	r2, #268435456
 1208 003a 1A60     		str	r2, [r3]
 1209              		.syntax unified
 1210              	@ 847 "Middlewares/Third_Party/FreeRTOS/Source/CMSIS_RTOS/cmsis_os.c" 1
 1211 003c BFF34F8F 		dsb
 1212              	@ 0 "" 2
 1213              	@ 847 "Middlewares/Third_Party/FreeRTOS/Source/CMSIS_RTOS/cmsis_os.c" 1
 1214 0040 BFF36F8F 		isb
 1215              	@ 0 "" 2
 853:Middlewares/Third_Party/FreeRTOS/Source/CMSIS_RTOS/cmsis_os.c **** }
 1216              		.loc 1 853 0 is_stmt 1 discriminator 1
 1217              		.thumb
 1218              		.syntax unified
 1219 0044 2046     		mov	r0, r4
 1220              		.loc 1 854 0 discriminator 1
 1221 0046 02B0     		add	sp, sp, #8
 1222              	.LCFI39:
 1223              		.cfi_remember_state
 1224              		.cfi_def_cfa_offset 8
 1225              		@ sp needed
 1226 0048 10BD     		pop	{r4, pc}
 1227              	.L100:
 1228              	.LCFI40:
 1229              		.cfi_restore_state
 845:Middlewares/Third_Party/FreeRTOS/Source/CMSIS_RTOS/cmsis_os.c ****     }
 1230              		.loc 1 845 0
 1231 004a FF20     		movs	r0, #255
 1232              		.loc 1 854 0
 1233 004c 02B0     		add	sp, sp, #8
 1234              	.LCFI41:
 1235              		.cfi_remember_state
 1236              		.cfi_def_cfa_offset 8
 1237              		@ sp needed
 1238 004e 10BD     		pop	{r4, pc}
 1239              	.LVL81:
 1240              	.L101:
 1241              	.LCFI42:
 1242              		.cfi_restore_state
 829:Middlewares/Third_Party/FreeRTOS/Source/CMSIS_RTOS/cmsis_os.c ****   }
 1243              		.loc 1 829 0
 1244 0050 8020     		movs	r0, #128
 1245              	.LVL82:
 1246              		.loc 1 854 0
 1247 0052 02B0     		add	sp, sp, #8
 1248              	.LCFI43:
 1249              		.cfi_def_cfa_offset 8
 1250              		@ sp needed
 1251 0054 10BD     		pop	{r4, pc}
 1252              	.L108:
 1253 0056 00BF     		.align	2
 1254              	.L107:
 1255 0058 04ED00E0 		.word	-536810236
 1256              		.cfi_endproc
ARM GAS  C:\Users\ALEX'S~1\AppData\Local\Temp\ccjCNn9l.s 			page 40


 1257              	.LFE54:
 1259              		.section	.text.osSemaphoreRelease,"ax",%progbits
 1260              		.align	1
 1261              		.p2align 2,,3
 1262              		.global	osSemaphoreRelease
 1263              		.syntax unified
 1264              		.thumb
 1265              		.thumb_func
 1266              		.fpu fpv4-sp-d16
 1268              	osSemaphoreRelease:
 1269              	.LFB89:
 1270              		.cfi_startproc
 1271              		@ args = 0, pretend = 0, frame = 8
 1272              		@ frame_needed = 0, uses_anonymous_args = 0
 1273 0000 10B5     		push	{r4, lr}
 1274              	.LCFI44:
 1275              		.cfi_def_cfa_offset 8
 1276              		.cfi_offset 4, -8
 1277              		.cfi_offset 14, -4
 1278 0002 82B0     		sub	sp, sp, #8
 1279              	.LCFI45:
 1280              		.cfi_def_cfa_offset 16
 1281 0004 0024     		movs	r4, #0
 1282 0006 0194     		str	r4, [sp, #4]
 1283              		.syntax unified
 1284              	@ 109 "Drivers/CMSIS/Include/cmsis_gcc.h" 1
 1285 0008 EFF30583 		MRS r3, ipsr
 1286              	@ 0 "" 2
 1287              		.thumb
 1288              		.syntax unified
 1289 000c 4BB1     		cbz	r3, .L110
 1290 000e 01A9     		add	r1, sp, #4
 1291 0010 FFF7FEFF 		bl	xQueueGiveFromISR
 1292 0014 0128     		cmp	r0, #1
 1293 0016 0AD1     		bne	.L111
 1294 0018 019B     		ldr	r3, [sp, #4]
 1295 001a 5BB9     		cbnz	r3, .L112
 1296              	.L114:
 1297 001c 0020     		movs	r0, #0
 1298 001e 02B0     		add	sp, sp, #8
 1299              	.LCFI46:
 1300              		.cfi_remember_state
 1301              		.cfi_def_cfa_offset 8
 1302              		@ sp needed
 1303 0020 10BD     		pop	{r4, pc}
 1304              	.L110:
 1305              	.LCFI47:
 1306              		.cfi_restore_state
 1307 0022 1A46     		mov	r2, r3
 1308 0024 1946     		mov	r1, r3
 1309 0026 FFF7FEFF 		bl	xQueueGenericSend
 1310 002a 0128     		cmp	r0, #1
 1311 002c F6D0     		beq	.L114
 1312              	.L111:
 1313 002e FF20     		movs	r0, #255
 1314 0030 02B0     		add	sp, sp, #8
 1315              	.LCFI48:
ARM GAS  C:\Users\ALEX'S~1\AppData\Local\Temp\ccjCNn9l.s 			page 41


 1316              		.cfi_remember_state
 1317              		.cfi_def_cfa_offset 8
 1318              		@ sp needed
 1319 0032 10BD     		pop	{r4, pc}
 1320              	.L112:
 1321              	.LCFI49:
 1322              		.cfi_restore_state
 1323 0034 054B     		ldr	r3, .L119
 1324 0036 4FF08052 		mov	r2, #268435456
 1325 003a 1A60     		str	r2, [r3]
 1326              		.syntax unified
 1327              	@ 718 "Middlewares/Third_Party/FreeRTOS/Source/CMSIS_RTOS/cmsis_os.c" 1
 1328 003c BFF34F8F 		dsb
 1329              	@ 0 "" 2
 1330              	@ 718 "Middlewares/Third_Party/FreeRTOS/Source/CMSIS_RTOS/cmsis_os.c" 1
 1331 0040 BFF36F8F 		isb
 1332              	@ 0 "" 2
 1333              		.thumb
 1334              		.syntax unified
 1335 0044 2046     		mov	r0, r4
 1336 0046 02B0     		add	sp, sp, #8
 1337              	.LCFI50:
 1338              		.cfi_def_cfa_offset 8
 1339              		@ sp needed
 1340 0048 10BD     		pop	{r4, pc}
 1341              	.L120:
 1342 004a 00BF     		.align	2
 1343              	.L119:
 1344 004c 04ED00E0 		.word	-536810236
 1345              		.cfi_endproc
 1346              	.LFE89:
 1348              		.section	.text.osSemaphoreDelete,"ax",%progbits
 1349              		.align	1
 1350              		.p2align 2,,3
 1351              		.global	osSemaphoreDelete
 1352              		.syntax unified
 1353              		.thumb
 1354              		.thumb_func
 1355              		.fpu fpv4-sp-d16
 1357              	osSemaphoreDelete:
 1358              	.LFB91:
 1359              		.cfi_startproc
 1360              		@ args = 0, pretend = 0, frame = 0
 1361              		@ frame_needed = 0, uses_anonymous_args = 0
 1362 0000 10B5     		push	{r4, lr}
 1363              	.LCFI51:
 1364              		.cfi_def_cfa_offset 8
 1365              		.cfi_offset 4, -8
 1366              		.cfi_offset 14, -4
 1367              		.syntax unified
 1368              	@ 109 "Drivers/CMSIS/Include/cmsis_gcc.h" 1
 1369 0002 EFF30584 		MRS r4, ipsr
 1370              	@ 0 "" 2
 1371              		.thumb
 1372              		.syntax unified
 1373 0006 1CB9     		cbnz	r4, .L123
 1374 0008 FFF7FEFF 		bl	vQueueDelete
ARM GAS  C:\Users\ALEX'S~1\AppData\Local\Temp\ccjCNn9l.s 			page 42


 1375 000c 2046     		mov	r0, r4
 1376 000e 10BD     		pop	{r4, pc}
 1377              	.L123:
 1378 0010 8220     		movs	r0, #130
 1379 0012 10BD     		pop	{r4, pc}
 1380              		.cfi_endproc
 1381              	.LFE91:
 1383              		.section	.text.osPoolCreate,"ax",%progbits
 1384              		.align	1
 1385              		.p2align 2,,3
 1386              		.global	osPoolCreate
 1387              		.syntax unified
 1388              		.thumb
 1389              		.thumb_func
 1390              		.fpu fpv4-sp-d16
 1392              	osPoolCreate:
 1393              	.LFB57:
 855:Middlewares/Third_Party/FreeRTOS/Source/CMSIS_RTOS/cmsis_os.c **** 
 856:Middlewares/Third_Party/FreeRTOS/Source/CMSIS_RTOS/cmsis_os.c **** /**
 857:Middlewares/Third_Party/FreeRTOS/Source/CMSIS_RTOS/cmsis_os.c **** * @brief Release a Semaphore token
 858:Middlewares/Third_Party/FreeRTOS/Source/CMSIS_RTOS/cmsis_os.c **** * @param  semaphore_id  semaphore object referenced with \ref osSemaphore.
 859:Middlewares/Third_Party/FreeRTOS/Source/CMSIS_RTOS/cmsis_os.c **** * @retval  status code that indicates the execution status of the function.
 860:Middlewares/Third_Party/FreeRTOS/Source/CMSIS_RTOS/cmsis_os.c **** * @note   MUST REMAIN UNCHANGED: \b osSemaphoreRelease shall be consistent in every CMSIS-RTOS.
 861:Middlewares/Third_Party/FreeRTOS/Source/CMSIS_RTOS/cmsis_os.c **** */
 862:Middlewares/Third_Party/FreeRTOS/Source/CMSIS_RTOS/cmsis_os.c **** osStatus osSemaphoreRelease (osSemaphoreId semaphore_id)
 863:Middlewares/Third_Party/FreeRTOS/Source/CMSIS_RTOS/cmsis_os.c **** {
 864:Middlewares/Third_Party/FreeRTOS/Source/CMSIS_RTOS/cmsis_os.c ****   osStatus result = osOK;
 865:Middlewares/Third_Party/FreeRTOS/Source/CMSIS_RTOS/cmsis_os.c ****   portBASE_TYPE taskWoken = pdFALSE;
 866:Middlewares/Third_Party/FreeRTOS/Source/CMSIS_RTOS/cmsis_os.c ****   
 867:Middlewares/Third_Party/FreeRTOS/Source/CMSIS_RTOS/cmsis_os.c ****   
 868:Middlewares/Third_Party/FreeRTOS/Source/CMSIS_RTOS/cmsis_os.c ****   if (inHandlerMode()) {
 869:Middlewares/Third_Party/FreeRTOS/Source/CMSIS_RTOS/cmsis_os.c ****     if (xSemaphoreGiveFromISR(semaphore_id, &taskWoken) != pdTRUE) {
 870:Middlewares/Third_Party/FreeRTOS/Source/CMSIS_RTOS/cmsis_os.c ****       return osErrorOS;
 871:Middlewares/Third_Party/FreeRTOS/Source/CMSIS_RTOS/cmsis_os.c ****     }
 872:Middlewares/Third_Party/FreeRTOS/Source/CMSIS_RTOS/cmsis_os.c ****     portEND_SWITCHING_ISR(taskWoken);
 873:Middlewares/Third_Party/FreeRTOS/Source/CMSIS_RTOS/cmsis_os.c ****   }
 874:Middlewares/Third_Party/FreeRTOS/Source/CMSIS_RTOS/cmsis_os.c ****   else {
 875:Middlewares/Third_Party/FreeRTOS/Source/CMSIS_RTOS/cmsis_os.c ****     if (xSemaphoreGive(semaphore_id) != pdTRUE) {
 876:Middlewares/Third_Party/FreeRTOS/Source/CMSIS_RTOS/cmsis_os.c ****       result = osErrorOS;
 877:Middlewares/Third_Party/FreeRTOS/Source/CMSIS_RTOS/cmsis_os.c ****     }
 878:Middlewares/Third_Party/FreeRTOS/Source/CMSIS_RTOS/cmsis_os.c ****   }
 879:Middlewares/Third_Party/FreeRTOS/Source/CMSIS_RTOS/cmsis_os.c ****   
 880:Middlewares/Third_Party/FreeRTOS/Source/CMSIS_RTOS/cmsis_os.c ****   return result;
 881:Middlewares/Third_Party/FreeRTOS/Source/CMSIS_RTOS/cmsis_os.c **** }
 882:Middlewares/Third_Party/FreeRTOS/Source/CMSIS_RTOS/cmsis_os.c **** 
 883:Middlewares/Third_Party/FreeRTOS/Source/CMSIS_RTOS/cmsis_os.c **** /**
 884:Middlewares/Third_Party/FreeRTOS/Source/CMSIS_RTOS/cmsis_os.c **** * @brief Delete a Semaphore
 885:Middlewares/Third_Party/FreeRTOS/Source/CMSIS_RTOS/cmsis_os.c **** * @param  semaphore_id  semaphore object referenced with \ref osSemaphore.
 886:Middlewares/Third_Party/FreeRTOS/Source/CMSIS_RTOS/cmsis_os.c **** * @retval  status code that indicates the execution status of the function.
 887:Middlewares/Third_Party/FreeRTOS/Source/CMSIS_RTOS/cmsis_os.c **** * @note   MUST REMAIN UNCHANGED: \b osSemaphoreDelete shall be consistent in every CMSIS-RTOS.
 888:Middlewares/Third_Party/FreeRTOS/Source/CMSIS_RTOS/cmsis_os.c **** */
 889:Middlewares/Third_Party/FreeRTOS/Source/CMSIS_RTOS/cmsis_os.c **** osStatus osSemaphoreDelete (osSemaphoreId semaphore_id)
 890:Middlewares/Third_Party/FreeRTOS/Source/CMSIS_RTOS/cmsis_os.c **** {
 891:Middlewares/Third_Party/FreeRTOS/Source/CMSIS_RTOS/cmsis_os.c ****   if (inHandlerMode()) {
 892:Middlewares/Third_Party/FreeRTOS/Source/CMSIS_RTOS/cmsis_os.c ****     return osErrorISR;
 893:Middlewares/Third_Party/FreeRTOS/Source/CMSIS_RTOS/cmsis_os.c ****   }
 894:Middlewares/Third_Party/FreeRTOS/Source/CMSIS_RTOS/cmsis_os.c **** 
ARM GAS  C:\Users\ALEX'S~1\AppData\Local\Temp\ccjCNn9l.s 			page 43


 895:Middlewares/Third_Party/FreeRTOS/Source/CMSIS_RTOS/cmsis_os.c ****   vSemaphoreDelete(semaphore_id);
 896:Middlewares/Third_Party/FreeRTOS/Source/CMSIS_RTOS/cmsis_os.c **** 
 897:Middlewares/Third_Party/FreeRTOS/Source/CMSIS_RTOS/cmsis_os.c ****   return osOK; 
 898:Middlewares/Third_Party/FreeRTOS/Source/CMSIS_RTOS/cmsis_os.c **** }
 899:Middlewares/Third_Party/FreeRTOS/Source/CMSIS_RTOS/cmsis_os.c **** 
 900:Middlewares/Third_Party/FreeRTOS/Source/CMSIS_RTOS/cmsis_os.c **** #endif    /* Use Semaphores */
 901:Middlewares/Third_Party/FreeRTOS/Source/CMSIS_RTOS/cmsis_os.c **** 
 902:Middlewares/Third_Party/FreeRTOS/Source/CMSIS_RTOS/cmsis_os.c **** /*******************   Memory Pool Management Functions  ***********************/
 903:Middlewares/Third_Party/FreeRTOS/Source/CMSIS_RTOS/cmsis_os.c **** 
 904:Middlewares/Third_Party/FreeRTOS/Source/CMSIS_RTOS/cmsis_os.c **** #if (defined (osFeature_Pool)  &&  (osFeature_Pool != 0)) 
 905:Middlewares/Third_Party/FreeRTOS/Source/CMSIS_RTOS/cmsis_os.c **** 
 906:Middlewares/Third_Party/FreeRTOS/Source/CMSIS_RTOS/cmsis_os.c **** //TODO
 907:Middlewares/Third_Party/FreeRTOS/Source/CMSIS_RTOS/cmsis_os.c **** //This is a primitive and inefficient wrapper around the existing FreeRTOS memory management.
 908:Middlewares/Third_Party/FreeRTOS/Source/CMSIS_RTOS/cmsis_os.c **** //A better implementation will have to modify heap_x.c!
 909:Middlewares/Third_Party/FreeRTOS/Source/CMSIS_RTOS/cmsis_os.c **** 
 910:Middlewares/Third_Party/FreeRTOS/Source/CMSIS_RTOS/cmsis_os.c **** 
 911:Middlewares/Third_Party/FreeRTOS/Source/CMSIS_RTOS/cmsis_os.c **** typedef struct os_pool_cb {
 912:Middlewares/Third_Party/FreeRTOS/Source/CMSIS_RTOS/cmsis_os.c ****   void *pool;
 913:Middlewares/Third_Party/FreeRTOS/Source/CMSIS_RTOS/cmsis_os.c ****   uint8_t *markers;
 914:Middlewares/Third_Party/FreeRTOS/Source/CMSIS_RTOS/cmsis_os.c ****   uint32_t pool_sz;
 915:Middlewares/Third_Party/FreeRTOS/Source/CMSIS_RTOS/cmsis_os.c ****   uint32_t item_sz;
 916:Middlewares/Third_Party/FreeRTOS/Source/CMSIS_RTOS/cmsis_os.c ****   uint32_t currentIndex;
 917:Middlewares/Third_Party/FreeRTOS/Source/CMSIS_RTOS/cmsis_os.c **** } os_pool_cb_t;
 918:Middlewares/Third_Party/FreeRTOS/Source/CMSIS_RTOS/cmsis_os.c **** 
 919:Middlewares/Third_Party/FreeRTOS/Source/CMSIS_RTOS/cmsis_os.c **** 
 920:Middlewares/Third_Party/FreeRTOS/Source/CMSIS_RTOS/cmsis_os.c **** /**
 921:Middlewares/Third_Party/FreeRTOS/Source/CMSIS_RTOS/cmsis_os.c **** * @brief Create and Initialize a memory pool
 922:Middlewares/Third_Party/FreeRTOS/Source/CMSIS_RTOS/cmsis_os.c **** * @param  pool_def      memory pool definition referenced with \ref osPool.
 923:Middlewares/Third_Party/FreeRTOS/Source/CMSIS_RTOS/cmsis_os.c **** * @retval  memory pool ID for reference by other functions or NULL in case of error.
 924:Middlewares/Third_Party/FreeRTOS/Source/CMSIS_RTOS/cmsis_os.c **** * @note   MUST REMAIN UNCHANGED: \b osPoolCreate shall be consistent in every CMSIS-RTOS.
 925:Middlewares/Third_Party/FreeRTOS/Source/CMSIS_RTOS/cmsis_os.c **** */
 926:Middlewares/Third_Party/FreeRTOS/Source/CMSIS_RTOS/cmsis_os.c **** osPoolId osPoolCreate (const osPoolDef_t *pool_def)
 927:Middlewares/Third_Party/FreeRTOS/Source/CMSIS_RTOS/cmsis_os.c **** {
 1394              		.loc 1 927 0
 1395              		.cfi_startproc
 1396              		@ args = 0, pretend = 0, frame = 8
 1397              		@ frame_needed = 0, uses_anonymous_args = 0
 1398              	.LVL83:
 1399              		.loc 1 927 0
 1400 0000 F0B5     		push	{r4, r5, r6, r7, lr}
 1401              	.LCFI52:
 1402              		.cfi_def_cfa_offset 20
 1403              		.cfi_offset 4, -20
 1404              		.cfi_offset 5, -16
 1405              		.cfi_offset 6, -12
 1406              		.cfi_offset 7, -8
 1407              		.cfi_offset 14, -4
 1408 0002 0646     		mov	r6, r0
 1409 0004 83B0     		sub	sp, sp, #12
 1410              	.LCFI53:
 1411              		.cfi_def_cfa_offset 32
 928:Middlewares/Third_Party/FreeRTOS/Source/CMSIS_RTOS/cmsis_os.c **** #if (configSUPPORT_DYNAMIC_ALLOCATION == 1)
 929:Middlewares/Third_Party/FreeRTOS/Source/CMSIS_RTOS/cmsis_os.c ****   osPoolId thePool;
 930:Middlewares/Third_Party/FreeRTOS/Source/CMSIS_RTOS/cmsis_os.c ****   int itemSize = 4 * ((pool_def->item_sz + 3) / 4);
 931:Middlewares/Third_Party/FreeRTOS/Source/CMSIS_RTOS/cmsis_os.c ****   uint32_t i;
 932:Middlewares/Third_Party/FreeRTOS/Source/CMSIS_RTOS/cmsis_os.c ****   
 933:Middlewares/Third_Party/FreeRTOS/Source/CMSIS_RTOS/cmsis_os.c ****   /* First have to allocate memory for the pool control block. */
ARM GAS  C:\Users\ALEX'S~1\AppData\Local\Temp\ccjCNn9l.s 			page 44


 934:Middlewares/Third_Party/FreeRTOS/Source/CMSIS_RTOS/cmsis_os.c ****  thePool = pvPortMalloc(sizeof(os_pool_cb_t));
 1412              		.loc 1 934 0
 1413 0006 1420     		movs	r0, #20
 1414              	.LVL84:
 930:Middlewares/Third_Party/FreeRTOS/Source/CMSIS_RTOS/cmsis_os.c ****   uint32_t i;
 1415              		.loc 1 930 0
 1416 0008 7768     		ldr	r7, [r6, #4]
 1417              	.LVL85:
 1418              		.loc 1 934 0
 1419 000a FFF7FEFF 		bl	pvPortMalloc
 1420              	.LVL86:
 935:Middlewares/Third_Party/FreeRTOS/Source/CMSIS_RTOS/cmsis_os.c **** 
 936:Middlewares/Third_Party/FreeRTOS/Source/CMSIS_RTOS/cmsis_os.c ****   
 937:Middlewares/Third_Party/FreeRTOS/Source/CMSIS_RTOS/cmsis_os.c ****   if (thePool) {
 1421              		.loc 1 937 0
 1422 000e 0546     		mov	r5, r0
 1423 0010 E8B1     		cbz	r0, .L125
 930:Middlewares/Third_Party/FreeRTOS/Source/CMSIS_RTOS/cmsis_os.c ****   uint32_t i;
 1424              		.loc 1 930 0
 1425 0012 0337     		adds	r7, r7, #3
 1426              	.LVL87:
 938:Middlewares/Third_Party/FreeRTOS/Source/CMSIS_RTOS/cmsis_os.c ****     thePool->pool_sz = pool_def->pool_sz;
 1427              		.loc 1 938 0
 1428 0014 3068     		ldr	r0, [r6]
 1429              	.LVL88:
 1430 0016 A860     		str	r0, [r5, #8]
 930:Middlewares/Third_Party/FreeRTOS/Source/CMSIS_RTOS/cmsis_os.c ****   uint32_t i;
 1431              		.loc 1 930 0
 1432 0018 27F00307 		bic	r7, r7, #3
 1433              	.LVL89:
 939:Middlewares/Third_Party/FreeRTOS/Source/CMSIS_RTOS/cmsis_os.c ****     thePool->item_sz = itemSize;
 940:Middlewares/Third_Party/FreeRTOS/Source/CMSIS_RTOS/cmsis_os.c ****     thePool->currentIndex = 0;
 1434              		.loc 1 940 0
 1435 001c 0024     		movs	r4, #0
 1436 001e C5E90374 		strd	r7, r4, [r5, #12]
 941:Middlewares/Third_Party/FreeRTOS/Source/CMSIS_RTOS/cmsis_os.c ****     
 942:Middlewares/Third_Party/FreeRTOS/Source/CMSIS_RTOS/cmsis_os.c ****     /* Memory for markers */
 943:Middlewares/Third_Party/FreeRTOS/Source/CMSIS_RTOS/cmsis_os.c ****     thePool->markers = pvPortMalloc(pool_def->pool_sz);
 1437              		.loc 1 943 0
 1438 0022 FFF7FEFF 		bl	pvPortMalloc
 1439              	.LVL90:
 1440 0026 6860     		str	r0, [r5, #4]
 944:Middlewares/Third_Party/FreeRTOS/Source/CMSIS_RTOS/cmsis_os.c ****    
 945:Middlewares/Third_Party/FreeRTOS/Source/CMSIS_RTOS/cmsis_os.c ****     if (thePool->markers) {
 1441              		.loc 1 945 0
 1442 0028 A0B1     		cbz	r0, .L127
 946:Middlewares/Third_Party/FreeRTOS/Source/CMSIS_RTOS/cmsis_os.c ****       /* Now allocate the pool itself. */
 947:Middlewares/Third_Party/FreeRTOS/Source/CMSIS_RTOS/cmsis_os.c ****      thePool->pool = pvPortMalloc(pool_def->pool_sz * itemSize);
 1443              		.loc 1 947 0
 1444 002a 3068     		ldr	r0, [r6]
 1445 002c 00FB07F0 		mul	r0, r0, r7
 1446 0030 FFF7FEFF 		bl	pvPortMalloc
 1447              	.LVL91:
 1448 0034 0746     		mov	r7, r0
 1449 0036 2860     		str	r0, [r5]
 948:Middlewares/Third_Party/FreeRTOS/Source/CMSIS_RTOS/cmsis_os.c ****       
 949:Middlewares/Third_Party/FreeRTOS/Source/CMSIS_RTOS/cmsis_os.c ****       if (thePool->pool) {
ARM GAS  C:\Users\ALEX'S~1\AppData\Local\Temp\ccjCNn9l.s 			page 45


 1450              		.loc 1 949 0
 1451 0038 98B1     		cbz	r0, .L128
 1452              	.LVL92:
 950:Middlewares/Third_Party/FreeRTOS/Source/CMSIS_RTOS/cmsis_os.c ****         for (i = 0; i < pool_def->pool_sz; i++) {
 1453              		.loc 1 950 0
 1454 003a 3368     		ldr	r3, [r6]
 1455 003c 3BB1     		cbz	r3, .L125
 1456 003e 2346     		mov	r3, r4
 951:Middlewares/Third_Party/FreeRTOS/Source/CMSIS_RTOS/cmsis_os.c ****           thePool->markers[i] = 0;
 1457              		.loc 1 951 0
 1458 0040 2146     		mov	r1, r4
 1459              	.LVL93:
 1460              	.L129:
 1461              		.loc 1 951 0 is_stmt 0 discriminator 3
 1462 0042 6A68     		ldr	r2, [r5, #4]
 1463 0044 D154     		strb	r1, [r2, r3]
 950:Middlewares/Third_Party/FreeRTOS/Source/CMSIS_RTOS/cmsis_os.c ****         for (i = 0; i < pool_def->pool_sz; i++) {
 1464              		.loc 1 950 0 is_stmt 1 discriminator 3
 1465 0046 3268     		ldr	r2, [r6]
 1466 0048 0133     		adds	r3, r3, #1
 1467              	.LVL94:
 1468 004a 9A42     		cmp	r2, r3
 1469 004c F9D8     		bhi	.L129
 1470              	.LVL95:
 1471              	.L125:
 952:Middlewares/Third_Party/FreeRTOS/Source/CMSIS_RTOS/cmsis_os.c ****         }
 953:Middlewares/Third_Party/FreeRTOS/Source/CMSIS_RTOS/cmsis_os.c ****       }
 954:Middlewares/Third_Party/FreeRTOS/Source/CMSIS_RTOS/cmsis_os.c ****       else {
 955:Middlewares/Third_Party/FreeRTOS/Source/CMSIS_RTOS/cmsis_os.c ****         vPortFree(thePool->markers);
 956:Middlewares/Third_Party/FreeRTOS/Source/CMSIS_RTOS/cmsis_os.c ****         vPortFree(thePool);
 957:Middlewares/Third_Party/FreeRTOS/Source/CMSIS_RTOS/cmsis_os.c ****         thePool = NULL;
 958:Middlewares/Third_Party/FreeRTOS/Source/CMSIS_RTOS/cmsis_os.c ****       }
 959:Middlewares/Third_Party/FreeRTOS/Source/CMSIS_RTOS/cmsis_os.c ****     }
 960:Middlewares/Third_Party/FreeRTOS/Source/CMSIS_RTOS/cmsis_os.c ****     else {
 961:Middlewares/Third_Party/FreeRTOS/Source/CMSIS_RTOS/cmsis_os.c ****       vPortFree(thePool);
 962:Middlewares/Third_Party/FreeRTOS/Source/CMSIS_RTOS/cmsis_os.c ****       thePool = NULL;
 963:Middlewares/Third_Party/FreeRTOS/Source/CMSIS_RTOS/cmsis_os.c ****     }
 964:Middlewares/Third_Party/FreeRTOS/Source/CMSIS_RTOS/cmsis_os.c ****   }
 965:Middlewares/Third_Party/FreeRTOS/Source/CMSIS_RTOS/cmsis_os.c **** 
 966:Middlewares/Third_Party/FreeRTOS/Source/CMSIS_RTOS/cmsis_os.c ****   return thePool;
 967:Middlewares/Third_Party/FreeRTOS/Source/CMSIS_RTOS/cmsis_os.c ****  
 968:Middlewares/Third_Party/FreeRTOS/Source/CMSIS_RTOS/cmsis_os.c **** #else
 969:Middlewares/Third_Party/FreeRTOS/Source/CMSIS_RTOS/cmsis_os.c ****   return NULL;
 970:Middlewares/Third_Party/FreeRTOS/Source/CMSIS_RTOS/cmsis_os.c **** #endif
 971:Middlewares/Third_Party/FreeRTOS/Source/CMSIS_RTOS/cmsis_os.c **** }
 1472              		.loc 1 971 0
 1473 004e 2846     		mov	r0, r5
 1474 0050 03B0     		add	sp, sp, #12
 1475              	.LCFI54:
 1476              		.cfi_remember_state
 1477              		.cfi_def_cfa_offset 20
 1478              		@ sp needed
 1479 0052 F0BD     		pop	{r4, r5, r6, r7, pc}
 1480              	.LVL96:
 1481              	.L127:
 1482              	.LCFI55:
 1483              		.cfi_restore_state
ARM GAS  C:\Users\ALEX'S~1\AppData\Local\Temp\ccjCNn9l.s 			page 46


 1484 0054 0190     		str	r0, [sp, #4]
 961:Middlewares/Third_Party/FreeRTOS/Source/CMSIS_RTOS/cmsis_os.c ****       thePool = NULL;
 1485              		.loc 1 961 0
 1486 0056 2846     		mov	r0, r5
 1487 0058 FFF7FEFF 		bl	vPortFree
 1488              	.LVL97:
 962:Middlewares/Third_Party/FreeRTOS/Source/CMSIS_RTOS/cmsis_os.c ****     }
 1489              		.loc 1 962 0
 1490 005c 019B     		ldr	r3, [sp, #4]
 1491 005e 1D46     		mov	r5, r3
 1492              	.LVL98:
 966:Middlewares/Third_Party/FreeRTOS/Source/CMSIS_RTOS/cmsis_os.c ****  
 1493              		.loc 1 966 0
 1494 0060 F5E7     		b	.L125
 1495              	.LVL99:
 1496              	.L128:
 955:Middlewares/Third_Party/FreeRTOS/Source/CMSIS_RTOS/cmsis_os.c ****         vPortFree(thePool);
 1497              		.loc 1 955 0
 1498 0062 6868     		ldr	r0, [r5, #4]
 1499 0064 FFF7FEFF 		bl	vPortFree
 1500              	.LVL100:
 956:Middlewares/Third_Party/FreeRTOS/Source/CMSIS_RTOS/cmsis_os.c ****         thePool = NULL;
 1501              		.loc 1 956 0
 1502 0068 2846     		mov	r0, r5
 1503 006a FFF7FEFF 		bl	vPortFree
 1504              	.LVL101:
 957:Middlewares/Third_Party/FreeRTOS/Source/CMSIS_RTOS/cmsis_os.c ****       }
 1505              		.loc 1 957 0
 1506 006e 3D46     		mov	r5, r7
 1507 0070 EDE7     		b	.L125
 1508              		.cfi_endproc
 1509              	.LFE57:
 1511 0072 00BF     		.section	.text.osPoolAlloc,"ax",%progbits
 1512              		.align	1
 1513              		.p2align 2,,3
 1514              		.global	osPoolAlloc
 1515              		.syntax unified
 1516              		.thumb
 1517              		.thumb_func
 1518              		.fpu fpv4-sp-d16
 1520              	osPoolAlloc:
 1521              	.LFB58:
 972:Middlewares/Third_Party/FreeRTOS/Source/CMSIS_RTOS/cmsis_os.c **** 
 973:Middlewares/Third_Party/FreeRTOS/Source/CMSIS_RTOS/cmsis_os.c **** /**
 974:Middlewares/Third_Party/FreeRTOS/Source/CMSIS_RTOS/cmsis_os.c **** * @brief Allocate a memory block from a memory pool
 975:Middlewares/Third_Party/FreeRTOS/Source/CMSIS_RTOS/cmsis_os.c **** * @param pool_id       memory pool ID obtain referenced with \ref osPoolCreate.
 976:Middlewares/Third_Party/FreeRTOS/Source/CMSIS_RTOS/cmsis_os.c **** * @retval  address of the allocated memory block or NULL in case of no memory available.
 977:Middlewares/Third_Party/FreeRTOS/Source/CMSIS_RTOS/cmsis_os.c **** * @note   MUST REMAIN UNCHANGED: \b osPoolAlloc shall be consistent in every CMSIS-RTOS.
 978:Middlewares/Third_Party/FreeRTOS/Source/CMSIS_RTOS/cmsis_os.c **** */
 979:Middlewares/Third_Party/FreeRTOS/Source/CMSIS_RTOS/cmsis_os.c **** void *osPoolAlloc (osPoolId pool_id)
 980:Middlewares/Third_Party/FreeRTOS/Source/CMSIS_RTOS/cmsis_os.c **** {
 1522              		.loc 1 980 0
 1523              		.cfi_startproc
 1524              		@ args = 0, pretend = 0, frame = 0
 1525              		@ frame_needed = 0, uses_anonymous_args = 0
 1526              	.LVL102:
 1527 0000 2DE9F041 		push	{r4, r5, r6, r7, r8, lr}
ARM GAS  C:\Users\ALEX'S~1\AppData\Local\Temp\ccjCNn9l.s 			page 47


 1528              	.LCFI56:
 1529              		.cfi_def_cfa_offset 24
 1530              		.cfi_offset 4, -24
 1531              		.cfi_offset 5, -20
 1532              		.cfi_offset 6, -16
 1533              		.cfi_offset 7, -12
 1534              		.cfi_offset 8, -8
 1535              		.cfi_offset 14, -4
 1536              		.loc 1 980 0
 1537 0004 8046     		mov	r8, r0
 1538              	.LBB154:
 1539              	.LBB155:
 1540              	.LBB156:
 1541              		.loc 2 109 0
 1542              		.syntax unified
 1543              	@ 109 "Drivers/CMSIS/Include/cmsis_gcc.h" 1
 1544 0006 EFF30584 		MRS r4, ipsr
 1545              	@ 0 "" 2
 1546              		.thumb
 1547              		.syntax unified
 1548              	.LBE156:
 1549              	.LBE155:
 1550              	.LBE154:
 981:Middlewares/Third_Party/FreeRTOS/Source/CMSIS_RTOS/cmsis_os.c ****   int dummy = 0;
 982:Middlewares/Third_Party/FreeRTOS/Source/CMSIS_RTOS/cmsis_os.c ****   void *p = NULL;
 983:Middlewares/Third_Party/FreeRTOS/Source/CMSIS_RTOS/cmsis_os.c ****   uint32_t i;
 984:Middlewares/Third_Party/FreeRTOS/Source/CMSIS_RTOS/cmsis_os.c ****   uint32_t index;
 985:Middlewares/Third_Party/FreeRTOS/Source/CMSIS_RTOS/cmsis_os.c ****   
 986:Middlewares/Third_Party/FreeRTOS/Source/CMSIS_RTOS/cmsis_os.c ****   if (inHandlerMode()) {
 1551              		.loc 1 986 0
 1552 000a 002C     		cmp	r4, #0
 1553 000c 3CD0     		beq	.L139
 1554              	.LBB157:
 1555              	.LBB158:
 1556              		.file 3 "Middlewares/Third_Party/FreeRTOS/Source/portable/GCC/ARM_CM4F/portmacro.h"
   1:Middlewares/Third_Party/FreeRTOS/Source/portable/GCC/ARM_CM4F/portmacro.h **** /*
   2:Middlewares/Third_Party/FreeRTOS/Source/portable/GCC/ARM_CM4F/portmacro.h ****     FreeRTOS V9.0.0 - Copyright (C) 2016 Real Time Engineers Ltd.
   3:Middlewares/Third_Party/FreeRTOS/Source/portable/GCC/ARM_CM4F/portmacro.h ****     All rights reserved
   4:Middlewares/Third_Party/FreeRTOS/Source/portable/GCC/ARM_CM4F/portmacro.h **** 
   5:Middlewares/Third_Party/FreeRTOS/Source/portable/GCC/ARM_CM4F/portmacro.h ****     VISIT http://www.FreeRTOS.org TO ENSURE YOU ARE USING THE LATEST VERSION.
   6:Middlewares/Third_Party/FreeRTOS/Source/portable/GCC/ARM_CM4F/portmacro.h **** 
   7:Middlewares/Third_Party/FreeRTOS/Source/portable/GCC/ARM_CM4F/portmacro.h ****     This file is part of the FreeRTOS distribution.
   8:Middlewares/Third_Party/FreeRTOS/Source/portable/GCC/ARM_CM4F/portmacro.h **** 
   9:Middlewares/Third_Party/FreeRTOS/Source/portable/GCC/ARM_CM4F/portmacro.h ****     FreeRTOS is free software; you can redistribute it and/or modify it under
  10:Middlewares/Third_Party/FreeRTOS/Source/portable/GCC/ARM_CM4F/portmacro.h ****     the terms of the GNU General Public License (version 2) as published by the
  11:Middlewares/Third_Party/FreeRTOS/Source/portable/GCC/ARM_CM4F/portmacro.h ****     Free Software Foundation >>>> AND MODIFIED BY <<<< the FreeRTOS exception.
  12:Middlewares/Third_Party/FreeRTOS/Source/portable/GCC/ARM_CM4F/portmacro.h **** 
  13:Middlewares/Third_Party/FreeRTOS/Source/portable/GCC/ARM_CM4F/portmacro.h ****     ***************************************************************************
  14:Middlewares/Third_Party/FreeRTOS/Source/portable/GCC/ARM_CM4F/portmacro.h ****     >>!   NOTE: The modification to the GPL is included to allow you to     !<<
  15:Middlewares/Third_Party/FreeRTOS/Source/portable/GCC/ARM_CM4F/portmacro.h ****     >>!   distribute a combined work that includes FreeRTOS without being   !<<
  16:Middlewares/Third_Party/FreeRTOS/Source/portable/GCC/ARM_CM4F/portmacro.h ****     >>!   obliged to provide the source code for proprietary components     !<<
  17:Middlewares/Third_Party/FreeRTOS/Source/portable/GCC/ARM_CM4F/portmacro.h ****     >>!   outside of the FreeRTOS kernel.                                   !<<
  18:Middlewares/Third_Party/FreeRTOS/Source/portable/GCC/ARM_CM4F/portmacro.h ****     ***************************************************************************
  19:Middlewares/Third_Party/FreeRTOS/Source/portable/GCC/ARM_CM4F/portmacro.h **** 
  20:Middlewares/Third_Party/FreeRTOS/Source/portable/GCC/ARM_CM4F/portmacro.h ****     FreeRTOS is distributed in the hope that it will be useful, but WITHOUT ANY
  21:Middlewares/Third_Party/FreeRTOS/Source/portable/GCC/ARM_CM4F/portmacro.h ****     WARRANTY; without even the implied warranty of MERCHANTABILITY or FITNESS
  22:Middlewares/Third_Party/FreeRTOS/Source/portable/GCC/ARM_CM4F/portmacro.h ****     FOR A PARTICULAR PURPOSE.  Full license text is available on the following
ARM GAS  C:\Users\ALEX'S~1\AppData\Local\Temp\ccjCNn9l.s 			page 48


  23:Middlewares/Third_Party/FreeRTOS/Source/portable/GCC/ARM_CM4F/portmacro.h ****     link: http://www.freertos.org/a00114.html
  24:Middlewares/Third_Party/FreeRTOS/Source/portable/GCC/ARM_CM4F/portmacro.h **** 
  25:Middlewares/Third_Party/FreeRTOS/Source/portable/GCC/ARM_CM4F/portmacro.h ****     ***************************************************************************
  26:Middlewares/Third_Party/FreeRTOS/Source/portable/GCC/ARM_CM4F/portmacro.h ****      *                                                                       *
  27:Middlewares/Third_Party/FreeRTOS/Source/portable/GCC/ARM_CM4F/portmacro.h ****      *    FreeRTOS provides completely free yet professionally developed,    *
  28:Middlewares/Third_Party/FreeRTOS/Source/portable/GCC/ARM_CM4F/portmacro.h ****      *    robust, strictly quality controlled, supported, and cross          *
  29:Middlewares/Third_Party/FreeRTOS/Source/portable/GCC/ARM_CM4F/portmacro.h ****      *    platform software that is more than just the market leader, it     *
  30:Middlewares/Third_Party/FreeRTOS/Source/portable/GCC/ARM_CM4F/portmacro.h ****      *    is the industry's de facto standard.                               *
  31:Middlewares/Third_Party/FreeRTOS/Source/portable/GCC/ARM_CM4F/portmacro.h ****      *                                                                       *
  32:Middlewares/Third_Party/FreeRTOS/Source/portable/GCC/ARM_CM4F/portmacro.h ****      *    Help yourself get started quickly while simultaneously helping     *
  33:Middlewares/Third_Party/FreeRTOS/Source/portable/GCC/ARM_CM4F/portmacro.h ****      *    to support the FreeRTOS project by purchasing a FreeRTOS           *
  34:Middlewares/Third_Party/FreeRTOS/Source/portable/GCC/ARM_CM4F/portmacro.h ****      *    tutorial book, reference manual, or both:                          *
  35:Middlewares/Third_Party/FreeRTOS/Source/portable/GCC/ARM_CM4F/portmacro.h ****      *    http://www.FreeRTOS.org/Documentation                              *
  36:Middlewares/Third_Party/FreeRTOS/Source/portable/GCC/ARM_CM4F/portmacro.h ****      *                                                                       *
  37:Middlewares/Third_Party/FreeRTOS/Source/portable/GCC/ARM_CM4F/portmacro.h ****     ***************************************************************************
  38:Middlewares/Third_Party/FreeRTOS/Source/portable/GCC/ARM_CM4F/portmacro.h **** 
  39:Middlewares/Third_Party/FreeRTOS/Source/portable/GCC/ARM_CM4F/portmacro.h ****     http://www.FreeRTOS.org/FAQHelp.html - Having a problem?  Start by reading
  40:Middlewares/Third_Party/FreeRTOS/Source/portable/GCC/ARM_CM4F/portmacro.h ****     the FAQ page "My application does not run, what could be wrong?".  Have you
  41:Middlewares/Third_Party/FreeRTOS/Source/portable/GCC/ARM_CM4F/portmacro.h ****     defined configASSERT()?
  42:Middlewares/Third_Party/FreeRTOS/Source/portable/GCC/ARM_CM4F/portmacro.h **** 
  43:Middlewares/Third_Party/FreeRTOS/Source/portable/GCC/ARM_CM4F/portmacro.h ****     http://www.FreeRTOS.org/support - In return for receiving this top quality
  44:Middlewares/Third_Party/FreeRTOS/Source/portable/GCC/ARM_CM4F/portmacro.h ****     embedded software for free we request you assist our global community by
  45:Middlewares/Third_Party/FreeRTOS/Source/portable/GCC/ARM_CM4F/portmacro.h ****     participating in the support forum.
  46:Middlewares/Third_Party/FreeRTOS/Source/portable/GCC/ARM_CM4F/portmacro.h **** 
  47:Middlewares/Third_Party/FreeRTOS/Source/portable/GCC/ARM_CM4F/portmacro.h ****     http://www.FreeRTOS.org/training - Investing in training allows your team to
  48:Middlewares/Third_Party/FreeRTOS/Source/portable/GCC/ARM_CM4F/portmacro.h ****     be as productive as possible as early as possible.  Now you can receive
  49:Middlewares/Third_Party/FreeRTOS/Source/portable/GCC/ARM_CM4F/portmacro.h ****     FreeRTOS training directly from Richard Barry, CEO of Real Time Engineers
  50:Middlewares/Third_Party/FreeRTOS/Source/portable/GCC/ARM_CM4F/portmacro.h ****     Ltd, and the world's leading authority on the world's leading RTOS.
  51:Middlewares/Third_Party/FreeRTOS/Source/portable/GCC/ARM_CM4F/portmacro.h **** 
  52:Middlewares/Third_Party/FreeRTOS/Source/portable/GCC/ARM_CM4F/portmacro.h ****     http://www.FreeRTOS.org/plus - A selection of FreeRTOS ecosystem products,
  53:Middlewares/Third_Party/FreeRTOS/Source/portable/GCC/ARM_CM4F/portmacro.h ****     including FreeRTOS+Trace - an indispensable productivity tool, a DOS
  54:Middlewares/Third_Party/FreeRTOS/Source/portable/GCC/ARM_CM4F/portmacro.h ****     compatible FAT file system, and our tiny thread aware UDP/IP stack.
  55:Middlewares/Third_Party/FreeRTOS/Source/portable/GCC/ARM_CM4F/portmacro.h **** 
  56:Middlewares/Third_Party/FreeRTOS/Source/portable/GCC/ARM_CM4F/portmacro.h ****     http://www.FreeRTOS.org/labs - Where new FreeRTOS products go to incubate.
  57:Middlewares/Third_Party/FreeRTOS/Source/portable/GCC/ARM_CM4F/portmacro.h ****     Come and try FreeRTOS+TCP, our new open source TCP/IP stack for FreeRTOS.
  58:Middlewares/Third_Party/FreeRTOS/Source/portable/GCC/ARM_CM4F/portmacro.h **** 
  59:Middlewares/Third_Party/FreeRTOS/Source/portable/GCC/ARM_CM4F/portmacro.h ****     http://www.OpenRTOS.com - Real Time Engineers ltd. license FreeRTOS to High
  60:Middlewares/Third_Party/FreeRTOS/Source/portable/GCC/ARM_CM4F/portmacro.h ****     Integrity Systems ltd. to sell under the OpenRTOS brand.  Low cost OpenRTOS
  61:Middlewares/Third_Party/FreeRTOS/Source/portable/GCC/ARM_CM4F/portmacro.h ****     licenses offer ticketed support, indemnification and commercial middleware.
  62:Middlewares/Third_Party/FreeRTOS/Source/portable/GCC/ARM_CM4F/portmacro.h **** 
  63:Middlewares/Third_Party/FreeRTOS/Source/portable/GCC/ARM_CM4F/portmacro.h ****     http://www.SafeRTOS.com - High Integrity Systems also provide a safety
  64:Middlewares/Third_Party/FreeRTOS/Source/portable/GCC/ARM_CM4F/portmacro.h ****     engineered and independently SIL3 certified version for use in safety and
  65:Middlewares/Third_Party/FreeRTOS/Source/portable/GCC/ARM_CM4F/portmacro.h ****     mission critical applications that require provable dependability.
  66:Middlewares/Third_Party/FreeRTOS/Source/portable/GCC/ARM_CM4F/portmacro.h **** 
  67:Middlewares/Third_Party/FreeRTOS/Source/portable/GCC/ARM_CM4F/portmacro.h ****     1 tab == 4 spaces!
  68:Middlewares/Third_Party/FreeRTOS/Source/portable/GCC/ARM_CM4F/portmacro.h **** */
  69:Middlewares/Third_Party/FreeRTOS/Source/portable/GCC/ARM_CM4F/portmacro.h **** 
  70:Middlewares/Third_Party/FreeRTOS/Source/portable/GCC/ARM_CM4F/portmacro.h **** 
  71:Middlewares/Third_Party/FreeRTOS/Source/portable/GCC/ARM_CM4F/portmacro.h **** #ifndef PORTMACRO_H
  72:Middlewares/Third_Party/FreeRTOS/Source/portable/GCC/ARM_CM4F/portmacro.h **** #define PORTMACRO_H
  73:Middlewares/Third_Party/FreeRTOS/Source/portable/GCC/ARM_CM4F/portmacro.h **** 
  74:Middlewares/Third_Party/FreeRTOS/Source/portable/GCC/ARM_CM4F/portmacro.h **** #ifdef __cplusplus
  75:Middlewares/Third_Party/FreeRTOS/Source/portable/GCC/ARM_CM4F/portmacro.h **** extern "C" {
  76:Middlewares/Third_Party/FreeRTOS/Source/portable/GCC/ARM_CM4F/portmacro.h **** #endif
  77:Middlewares/Third_Party/FreeRTOS/Source/portable/GCC/ARM_CM4F/portmacro.h **** 
  78:Middlewares/Third_Party/FreeRTOS/Source/portable/GCC/ARM_CM4F/portmacro.h **** /*-----------------------------------------------------------
  79:Middlewares/Third_Party/FreeRTOS/Source/portable/GCC/ARM_CM4F/portmacro.h ****  * Port specific definitions.
ARM GAS  C:\Users\ALEX'S~1\AppData\Local\Temp\ccjCNn9l.s 			page 49


  80:Middlewares/Third_Party/FreeRTOS/Source/portable/GCC/ARM_CM4F/portmacro.h ****  *
  81:Middlewares/Third_Party/FreeRTOS/Source/portable/GCC/ARM_CM4F/portmacro.h ****  * The settings in this file configure FreeRTOS correctly for the
  82:Middlewares/Third_Party/FreeRTOS/Source/portable/GCC/ARM_CM4F/portmacro.h ****  * given hardware and compiler.
  83:Middlewares/Third_Party/FreeRTOS/Source/portable/GCC/ARM_CM4F/portmacro.h ****  *
  84:Middlewares/Third_Party/FreeRTOS/Source/portable/GCC/ARM_CM4F/portmacro.h ****  * These settings should not be altered.
  85:Middlewares/Third_Party/FreeRTOS/Source/portable/GCC/ARM_CM4F/portmacro.h ****  *-----------------------------------------------------------
  86:Middlewares/Third_Party/FreeRTOS/Source/portable/GCC/ARM_CM4F/portmacro.h ****  */
  87:Middlewares/Third_Party/FreeRTOS/Source/portable/GCC/ARM_CM4F/portmacro.h **** 
  88:Middlewares/Third_Party/FreeRTOS/Source/portable/GCC/ARM_CM4F/portmacro.h **** /* Type definitions. */
  89:Middlewares/Third_Party/FreeRTOS/Source/portable/GCC/ARM_CM4F/portmacro.h **** #define portCHAR		char
  90:Middlewares/Third_Party/FreeRTOS/Source/portable/GCC/ARM_CM4F/portmacro.h **** #define portFLOAT		float
  91:Middlewares/Third_Party/FreeRTOS/Source/portable/GCC/ARM_CM4F/portmacro.h **** #define portDOUBLE		double
  92:Middlewares/Third_Party/FreeRTOS/Source/portable/GCC/ARM_CM4F/portmacro.h **** #define portLONG		long
  93:Middlewares/Third_Party/FreeRTOS/Source/portable/GCC/ARM_CM4F/portmacro.h **** #define portSHORT		short
  94:Middlewares/Third_Party/FreeRTOS/Source/portable/GCC/ARM_CM4F/portmacro.h **** #define portSTACK_TYPE	uint32_t
  95:Middlewares/Third_Party/FreeRTOS/Source/portable/GCC/ARM_CM4F/portmacro.h **** #define portBASE_TYPE	long
  96:Middlewares/Third_Party/FreeRTOS/Source/portable/GCC/ARM_CM4F/portmacro.h **** 
  97:Middlewares/Third_Party/FreeRTOS/Source/portable/GCC/ARM_CM4F/portmacro.h **** typedef portSTACK_TYPE StackType_t;
  98:Middlewares/Third_Party/FreeRTOS/Source/portable/GCC/ARM_CM4F/portmacro.h **** typedef long BaseType_t;
  99:Middlewares/Third_Party/FreeRTOS/Source/portable/GCC/ARM_CM4F/portmacro.h **** typedef unsigned long UBaseType_t;
 100:Middlewares/Third_Party/FreeRTOS/Source/portable/GCC/ARM_CM4F/portmacro.h **** 
 101:Middlewares/Third_Party/FreeRTOS/Source/portable/GCC/ARM_CM4F/portmacro.h **** #if( configUSE_16_BIT_TICKS == 1 )
 102:Middlewares/Third_Party/FreeRTOS/Source/portable/GCC/ARM_CM4F/portmacro.h **** 	typedef uint16_t TickType_t;
 103:Middlewares/Third_Party/FreeRTOS/Source/portable/GCC/ARM_CM4F/portmacro.h **** 	#define portMAX_DELAY ( TickType_t ) 0xffff
 104:Middlewares/Third_Party/FreeRTOS/Source/portable/GCC/ARM_CM4F/portmacro.h **** #else
 105:Middlewares/Third_Party/FreeRTOS/Source/portable/GCC/ARM_CM4F/portmacro.h **** 	typedef uint32_t TickType_t;
 106:Middlewares/Third_Party/FreeRTOS/Source/portable/GCC/ARM_CM4F/portmacro.h **** 	#define portMAX_DELAY ( TickType_t ) 0xffffffffUL
 107:Middlewares/Third_Party/FreeRTOS/Source/portable/GCC/ARM_CM4F/portmacro.h **** 
 108:Middlewares/Third_Party/FreeRTOS/Source/portable/GCC/ARM_CM4F/portmacro.h **** 	/* 32-bit tick type on a 32-bit architecture, so reads of the tick count do
 109:Middlewares/Third_Party/FreeRTOS/Source/portable/GCC/ARM_CM4F/portmacro.h **** 	not need to be guarded with a critical section. */
 110:Middlewares/Third_Party/FreeRTOS/Source/portable/GCC/ARM_CM4F/portmacro.h **** 	#define portTICK_TYPE_IS_ATOMIC 1
 111:Middlewares/Third_Party/FreeRTOS/Source/portable/GCC/ARM_CM4F/portmacro.h **** #endif
 112:Middlewares/Third_Party/FreeRTOS/Source/portable/GCC/ARM_CM4F/portmacro.h **** /*-----------------------------------------------------------*/
 113:Middlewares/Third_Party/FreeRTOS/Source/portable/GCC/ARM_CM4F/portmacro.h **** 
 114:Middlewares/Third_Party/FreeRTOS/Source/portable/GCC/ARM_CM4F/portmacro.h **** /* Architecture specifics. */
 115:Middlewares/Third_Party/FreeRTOS/Source/portable/GCC/ARM_CM4F/portmacro.h **** #define portSTACK_GROWTH			( -1 )
 116:Middlewares/Third_Party/FreeRTOS/Source/portable/GCC/ARM_CM4F/portmacro.h **** #define portTICK_PERIOD_MS			( ( TickType_t ) 1000 / configTICK_RATE_HZ )
 117:Middlewares/Third_Party/FreeRTOS/Source/portable/GCC/ARM_CM4F/portmacro.h **** #define portBYTE_ALIGNMENT			8
 118:Middlewares/Third_Party/FreeRTOS/Source/portable/GCC/ARM_CM4F/portmacro.h **** /*-----------------------------------------------------------*/
 119:Middlewares/Third_Party/FreeRTOS/Source/portable/GCC/ARM_CM4F/portmacro.h **** 
 120:Middlewares/Third_Party/FreeRTOS/Source/portable/GCC/ARM_CM4F/portmacro.h **** /* Scheduler utilities. */
 121:Middlewares/Third_Party/FreeRTOS/Source/portable/GCC/ARM_CM4F/portmacro.h **** #define portYIELD() 															\
 122:Middlewares/Third_Party/FreeRTOS/Source/portable/GCC/ARM_CM4F/portmacro.h **** {																				\
 123:Middlewares/Third_Party/FreeRTOS/Source/portable/GCC/ARM_CM4F/portmacro.h **** 	/* Set a PendSV to request a context switch. */								\
 124:Middlewares/Third_Party/FreeRTOS/Source/portable/GCC/ARM_CM4F/portmacro.h **** 	portNVIC_INT_CTRL_REG = portNVIC_PENDSVSET_BIT;								\
 125:Middlewares/Third_Party/FreeRTOS/Source/portable/GCC/ARM_CM4F/portmacro.h **** 																				\
 126:Middlewares/Third_Party/FreeRTOS/Source/portable/GCC/ARM_CM4F/portmacro.h **** 	/* Barriers are normally not required but do ensure the code is completely	\
 127:Middlewares/Third_Party/FreeRTOS/Source/portable/GCC/ARM_CM4F/portmacro.h **** 	within the specified behaviour for the architecture. */						\
 128:Middlewares/Third_Party/FreeRTOS/Source/portable/GCC/ARM_CM4F/portmacro.h **** 	__asm volatile( "dsb" );													\
 129:Middlewares/Third_Party/FreeRTOS/Source/portable/GCC/ARM_CM4F/portmacro.h **** 	__asm volatile( "isb" );													\
 130:Middlewares/Third_Party/FreeRTOS/Source/portable/GCC/ARM_CM4F/portmacro.h **** }
 131:Middlewares/Third_Party/FreeRTOS/Source/portable/GCC/ARM_CM4F/portmacro.h **** 
 132:Middlewares/Third_Party/FreeRTOS/Source/portable/GCC/ARM_CM4F/portmacro.h **** #define portNVIC_INT_CTRL_REG		( * ( ( volatile uint32_t * ) 0xe000ed04 ) )
 133:Middlewares/Third_Party/FreeRTOS/Source/portable/GCC/ARM_CM4F/portmacro.h **** #define portNVIC_PENDSVSET_BIT		( 1UL << 28UL )
 134:Middlewares/Third_Party/FreeRTOS/Source/portable/GCC/ARM_CM4F/portmacro.h **** #define portEND_SWITCHING_ISR( xSwitchRequired ) if( xSwitchRequired != pdFALSE ) portYIELD()
 135:Middlewares/Third_Party/FreeRTOS/Source/portable/GCC/ARM_CM4F/portmacro.h **** #define portYIELD_FROM_ISR( x ) portEND_SWITCHING_ISR( x )
 136:Middlewares/Third_Party/FreeRTOS/Source/portable/GCC/ARM_CM4F/portmacro.h **** /*-----------------------------------------------------------*/
ARM GAS  C:\Users\ALEX'S~1\AppData\Local\Temp\ccjCNn9l.s 			page 50


 137:Middlewares/Third_Party/FreeRTOS/Source/portable/GCC/ARM_CM4F/portmacro.h **** 
 138:Middlewares/Third_Party/FreeRTOS/Source/portable/GCC/ARM_CM4F/portmacro.h **** /* Critical section management. */
 139:Middlewares/Third_Party/FreeRTOS/Source/portable/GCC/ARM_CM4F/portmacro.h **** extern void vPortEnterCritical( void );
 140:Middlewares/Third_Party/FreeRTOS/Source/portable/GCC/ARM_CM4F/portmacro.h **** extern void vPortExitCritical( void );
 141:Middlewares/Third_Party/FreeRTOS/Source/portable/GCC/ARM_CM4F/portmacro.h **** #define portSET_INTERRUPT_MASK_FROM_ISR()		ulPortRaiseBASEPRI()
 142:Middlewares/Third_Party/FreeRTOS/Source/portable/GCC/ARM_CM4F/portmacro.h **** #define portCLEAR_INTERRUPT_MASK_FROM_ISR(x)	vPortSetBASEPRI(x)
 143:Middlewares/Third_Party/FreeRTOS/Source/portable/GCC/ARM_CM4F/portmacro.h **** #define portDISABLE_INTERRUPTS()				vPortRaiseBASEPRI()
 144:Middlewares/Third_Party/FreeRTOS/Source/portable/GCC/ARM_CM4F/portmacro.h **** #define portENABLE_INTERRUPTS()					vPortSetBASEPRI(0)
 145:Middlewares/Third_Party/FreeRTOS/Source/portable/GCC/ARM_CM4F/portmacro.h **** #define portENTER_CRITICAL()					vPortEnterCritical()
 146:Middlewares/Third_Party/FreeRTOS/Source/portable/GCC/ARM_CM4F/portmacro.h **** #define portEXIT_CRITICAL()						vPortExitCritical()
 147:Middlewares/Third_Party/FreeRTOS/Source/portable/GCC/ARM_CM4F/portmacro.h **** 
 148:Middlewares/Third_Party/FreeRTOS/Source/portable/GCC/ARM_CM4F/portmacro.h **** /*-----------------------------------------------------------*/
 149:Middlewares/Third_Party/FreeRTOS/Source/portable/GCC/ARM_CM4F/portmacro.h **** 
 150:Middlewares/Third_Party/FreeRTOS/Source/portable/GCC/ARM_CM4F/portmacro.h **** /* Task function macros as described on the FreeRTOS.org WEB site.  These are
 151:Middlewares/Third_Party/FreeRTOS/Source/portable/GCC/ARM_CM4F/portmacro.h **** not necessary for to use this port.  They are defined so the common demo files
 152:Middlewares/Third_Party/FreeRTOS/Source/portable/GCC/ARM_CM4F/portmacro.h **** (which build with all the ports) will build. */
 153:Middlewares/Third_Party/FreeRTOS/Source/portable/GCC/ARM_CM4F/portmacro.h **** #define portTASK_FUNCTION_PROTO( vFunction, pvParameters ) void vFunction( void *pvParameters )
 154:Middlewares/Third_Party/FreeRTOS/Source/portable/GCC/ARM_CM4F/portmacro.h **** #define portTASK_FUNCTION( vFunction, pvParameters ) void vFunction( void *pvParameters )
 155:Middlewares/Third_Party/FreeRTOS/Source/portable/GCC/ARM_CM4F/portmacro.h **** /*-----------------------------------------------------------*/
 156:Middlewares/Third_Party/FreeRTOS/Source/portable/GCC/ARM_CM4F/portmacro.h **** 
 157:Middlewares/Third_Party/FreeRTOS/Source/portable/GCC/ARM_CM4F/portmacro.h **** /* Tickless idle/low power functionality. */
 158:Middlewares/Third_Party/FreeRTOS/Source/portable/GCC/ARM_CM4F/portmacro.h **** #ifndef portSUPPRESS_TICKS_AND_SLEEP
 159:Middlewares/Third_Party/FreeRTOS/Source/portable/GCC/ARM_CM4F/portmacro.h **** 	extern void vPortSuppressTicksAndSleep( TickType_t xExpectedIdleTime );
 160:Middlewares/Third_Party/FreeRTOS/Source/portable/GCC/ARM_CM4F/portmacro.h **** 	#define portSUPPRESS_TICKS_AND_SLEEP( xExpectedIdleTime ) vPortSuppressTicksAndSleep( xExpectedIdl
 161:Middlewares/Third_Party/FreeRTOS/Source/portable/GCC/ARM_CM4F/portmacro.h **** #endif
 162:Middlewares/Third_Party/FreeRTOS/Source/portable/GCC/ARM_CM4F/portmacro.h **** /*-----------------------------------------------------------*/
 163:Middlewares/Third_Party/FreeRTOS/Source/portable/GCC/ARM_CM4F/portmacro.h **** 
 164:Middlewares/Third_Party/FreeRTOS/Source/portable/GCC/ARM_CM4F/portmacro.h **** /* Architecture specific optimisations. */
 165:Middlewares/Third_Party/FreeRTOS/Source/portable/GCC/ARM_CM4F/portmacro.h **** #ifndef configUSE_PORT_OPTIMISED_TASK_SELECTION
 166:Middlewares/Third_Party/FreeRTOS/Source/portable/GCC/ARM_CM4F/portmacro.h **** 	#define configUSE_PORT_OPTIMISED_TASK_SELECTION 1
 167:Middlewares/Third_Party/FreeRTOS/Source/portable/GCC/ARM_CM4F/portmacro.h **** #endif
 168:Middlewares/Third_Party/FreeRTOS/Source/portable/GCC/ARM_CM4F/portmacro.h **** 
 169:Middlewares/Third_Party/FreeRTOS/Source/portable/GCC/ARM_CM4F/portmacro.h **** #if configUSE_PORT_OPTIMISED_TASK_SELECTION == 1
 170:Middlewares/Third_Party/FreeRTOS/Source/portable/GCC/ARM_CM4F/portmacro.h **** 
 171:Middlewares/Third_Party/FreeRTOS/Source/portable/GCC/ARM_CM4F/portmacro.h **** 	/* Generic helper function. */
 172:Middlewares/Third_Party/FreeRTOS/Source/portable/GCC/ARM_CM4F/portmacro.h **** 	__attribute__( ( always_inline ) ) static inline uint8_t ucPortCountLeadingZeros( uint32_t ulBitma
 173:Middlewares/Third_Party/FreeRTOS/Source/portable/GCC/ARM_CM4F/portmacro.h **** 	{
 174:Middlewares/Third_Party/FreeRTOS/Source/portable/GCC/ARM_CM4F/portmacro.h **** 	uint8_t ucReturn;
 175:Middlewares/Third_Party/FreeRTOS/Source/portable/GCC/ARM_CM4F/portmacro.h **** 
 176:Middlewares/Third_Party/FreeRTOS/Source/portable/GCC/ARM_CM4F/portmacro.h **** 		__asm volatile ( "clz %0, %1" : "=r" ( ucReturn ) : "r" ( ulBitmap ) );
 177:Middlewares/Third_Party/FreeRTOS/Source/portable/GCC/ARM_CM4F/portmacro.h **** 		return ucReturn;
 178:Middlewares/Third_Party/FreeRTOS/Source/portable/GCC/ARM_CM4F/portmacro.h **** 	}
 179:Middlewares/Third_Party/FreeRTOS/Source/portable/GCC/ARM_CM4F/portmacro.h **** 
 180:Middlewares/Third_Party/FreeRTOS/Source/portable/GCC/ARM_CM4F/portmacro.h **** 	/* Check the configuration. */
 181:Middlewares/Third_Party/FreeRTOS/Source/portable/GCC/ARM_CM4F/portmacro.h **** 	#if( configMAX_PRIORITIES > 32 )
 182:Middlewares/Third_Party/FreeRTOS/Source/portable/GCC/ARM_CM4F/portmacro.h **** 		#error configUSE_PORT_OPTIMISED_TASK_SELECTION can only be set to 1 when configMAX_PRIORITIES is 
 183:Middlewares/Third_Party/FreeRTOS/Source/portable/GCC/ARM_CM4F/portmacro.h **** 	#endif
 184:Middlewares/Third_Party/FreeRTOS/Source/portable/GCC/ARM_CM4F/portmacro.h **** 
 185:Middlewares/Third_Party/FreeRTOS/Source/portable/GCC/ARM_CM4F/portmacro.h **** 	/* Store/clear the ready priorities in a bit map. */
 186:Middlewares/Third_Party/FreeRTOS/Source/portable/GCC/ARM_CM4F/portmacro.h **** 	#define portRECORD_READY_PRIORITY( uxPriority, uxReadyPriorities ) ( uxReadyPriorities ) |= ( 1UL 
 187:Middlewares/Third_Party/FreeRTOS/Source/portable/GCC/ARM_CM4F/portmacro.h **** 	#define portRESET_READY_PRIORITY( uxPriority, uxReadyPriorities ) ( uxReadyPriorities ) &= ~( 1UL 
 188:Middlewares/Third_Party/FreeRTOS/Source/portable/GCC/ARM_CM4F/portmacro.h **** 
 189:Middlewares/Third_Party/FreeRTOS/Source/portable/GCC/ARM_CM4F/portmacro.h **** 	/*-----------------------------------------------------------*/
 190:Middlewares/Third_Party/FreeRTOS/Source/portable/GCC/ARM_CM4F/portmacro.h **** 
 191:Middlewares/Third_Party/FreeRTOS/Source/portable/GCC/ARM_CM4F/portmacro.h **** 	#define portGET_HIGHEST_PRIORITY( uxTopPriority, uxReadyPriorities ) uxTopPriority = ( 31UL - ( ui
 192:Middlewares/Third_Party/FreeRTOS/Source/portable/GCC/ARM_CM4F/portmacro.h **** 
 193:Middlewares/Third_Party/FreeRTOS/Source/portable/GCC/ARM_CM4F/portmacro.h **** #endif /* configUSE_PORT_OPTIMISED_TASK_SELECTION */
ARM GAS  C:\Users\ALEX'S~1\AppData\Local\Temp\ccjCNn9l.s 			page 51


 194:Middlewares/Third_Party/FreeRTOS/Source/portable/GCC/ARM_CM4F/portmacro.h **** 
 195:Middlewares/Third_Party/FreeRTOS/Source/portable/GCC/ARM_CM4F/portmacro.h **** /*-----------------------------------------------------------*/
 196:Middlewares/Third_Party/FreeRTOS/Source/portable/GCC/ARM_CM4F/portmacro.h **** 
 197:Middlewares/Third_Party/FreeRTOS/Source/portable/GCC/ARM_CM4F/portmacro.h **** #ifdef configASSERT
 198:Middlewares/Third_Party/FreeRTOS/Source/portable/GCC/ARM_CM4F/portmacro.h **** 	void vPortValidateInterruptPriority( void );
 199:Middlewares/Third_Party/FreeRTOS/Source/portable/GCC/ARM_CM4F/portmacro.h **** 	#define portASSERT_IF_INTERRUPT_PRIORITY_INVALID() 	vPortValidateInterruptPriority()
 200:Middlewares/Third_Party/FreeRTOS/Source/portable/GCC/ARM_CM4F/portmacro.h **** #endif
 201:Middlewares/Third_Party/FreeRTOS/Source/portable/GCC/ARM_CM4F/portmacro.h **** 
 202:Middlewares/Third_Party/FreeRTOS/Source/portable/GCC/ARM_CM4F/portmacro.h **** /* portNOP() is not required by this port. */
 203:Middlewares/Third_Party/FreeRTOS/Source/portable/GCC/ARM_CM4F/portmacro.h **** #define portNOP()
 204:Middlewares/Third_Party/FreeRTOS/Source/portable/GCC/ARM_CM4F/portmacro.h **** 
 205:Middlewares/Third_Party/FreeRTOS/Source/portable/GCC/ARM_CM4F/portmacro.h **** #define portINLINE	__inline
 206:Middlewares/Third_Party/FreeRTOS/Source/portable/GCC/ARM_CM4F/portmacro.h **** 
 207:Middlewares/Third_Party/FreeRTOS/Source/portable/GCC/ARM_CM4F/portmacro.h **** #ifndef portFORCE_INLINE
 208:Middlewares/Third_Party/FreeRTOS/Source/portable/GCC/ARM_CM4F/portmacro.h **** 	#define portFORCE_INLINE inline __attribute__(( always_inline))
 209:Middlewares/Third_Party/FreeRTOS/Source/portable/GCC/ARM_CM4F/portmacro.h **** #endif
 210:Middlewares/Third_Party/FreeRTOS/Source/portable/GCC/ARM_CM4F/portmacro.h **** 
 211:Middlewares/Third_Party/FreeRTOS/Source/portable/GCC/ARM_CM4F/portmacro.h **** portFORCE_INLINE static BaseType_t xPortIsInsideInterrupt( void )
 212:Middlewares/Third_Party/FreeRTOS/Source/portable/GCC/ARM_CM4F/portmacro.h **** {
 213:Middlewares/Third_Party/FreeRTOS/Source/portable/GCC/ARM_CM4F/portmacro.h **** uint32_t ulCurrentInterrupt;
 214:Middlewares/Third_Party/FreeRTOS/Source/portable/GCC/ARM_CM4F/portmacro.h **** BaseType_t xReturn;
 215:Middlewares/Third_Party/FreeRTOS/Source/portable/GCC/ARM_CM4F/portmacro.h **** 
 216:Middlewares/Third_Party/FreeRTOS/Source/portable/GCC/ARM_CM4F/portmacro.h **** 	/* Obtain the number of the currently executing interrupt. */
 217:Middlewares/Third_Party/FreeRTOS/Source/portable/GCC/ARM_CM4F/portmacro.h **** 	__asm volatile( "mrs %0, ipsr" : "=r"( ulCurrentInterrupt ) );
 218:Middlewares/Third_Party/FreeRTOS/Source/portable/GCC/ARM_CM4F/portmacro.h **** 
 219:Middlewares/Third_Party/FreeRTOS/Source/portable/GCC/ARM_CM4F/portmacro.h **** 	if( ulCurrentInterrupt == 0 )
 220:Middlewares/Third_Party/FreeRTOS/Source/portable/GCC/ARM_CM4F/portmacro.h **** 	{
 221:Middlewares/Third_Party/FreeRTOS/Source/portable/GCC/ARM_CM4F/portmacro.h **** 		xReturn = pdFALSE;
 222:Middlewares/Third_Party/FreeRTOS/Source/portable/GCC/ARM_CM4F/portmacro.h **** 	}
 223:Middlewares/Third_Party/FreeRTOS/Source/portable/GCC/ARM_CM4F/portmacro.h **** 	else
 224:Middlewares/Third_Party/FreeRTOS/Source/portable/GCC/ARM_CM4F/portmacro.h **** 	{
 225:Middlewares/Third_Party/FreeRTOS/Source/portable/GCC/ARM_CM4F/portmacro.h **** 		xReturn = pdTRUE;
 226:Middlewares/Third_Party/FreeRTOS/Source/portable/GCC/ARM_CM4F/portmacro.h **** 	}
 227:Middlewares/Third_Party/FreeRTOS/Source/portable/GCC/ARM_CM4F/portmacro.h **** 
 228:Middlewares/Third_Party/FreeRTOS/Source/portable/GCC/ARM_CM4F/portmacro.h **** 	return xReturn;
 229:Middlewares/Third_Party/FreeRTOS/Source/portable/GCC/ARM_CM4F/portmacro.h **** }
 230:Middlewares/Third_Party/FreeRTOS/Source/portable/GCC/ARM_CM4F/portmacro.h **** 
 231:Middlewares/Third_Party/FreeRTOS/Source/portable/GCC/ARM_CM4F/portmacro.h **** /*-----------------------------------------------------------*/
 232:Middlewares/Third_Party/FreeRTOS/Source/portable/GCC/ARM_CM4F/portmacro.h **** 
 233:Middlewares/Third_Party/FreeRTOS/Source/portable/GCC/ARM_CM4F/portmacro.h **** portFORCE_INLINE static void vPortRaiseBASEPRI( void )
 234:Middlewares/Third_Party/FreeRTOS/Source/portable/GCC/ARM_CM4F/portmacro.h **** {
 235:Middlewares/Third_Party/FreeRTOS/Source/portable/GCC/ARM_CM4F/portmacro.h **** uint32_t ulNewBASEPRI;
 236:Middlewares/Third_Party/FreeRTOS/Source/portable/GCC/ARM_CM4F/portmacro.h **** 
 237:Middlewares/Third_Party/FreeRTOS/Source/portable/GCC/ARM_CM4F/portmacro.h **** 	__asm volatile
 238:Middlewares/Third_Party/FreeRTOS/Source/portable/GCC/ARM_CM4F/portmacro.h **** 	(
 239:Middlewares/Third_Party/FreeRTOS/Source/portable/GCC/ARM_CM4F/portmacro.h **** 		"	mov %0, %1												\n"	\
 240:Middlewares/Third_Party/FreeRTOS/Source/portable/GCC/ARM_CM4F/portmacro.h **** 		"	msr basepri, %0											\n" \
 241:Middlewares/Third_Party/FreeRTOS/Source/portable/GCC/ARM_CM4F/portmacro.h **** 		"	isb														\n" \
 242:Middlewares/Third_Party/FreeRTOS/Source/portable/GCC/ARM_CM4F/portmacro.h **** 		"	dsb														\n" \
 243:Middlewares/Third_Party/FreeRTOS/Source/portable/GCC/ARM_CM4F/portmacro.h **** 		:"=r" (ulNewBASEPRI) : "i" ( configMAX_SYSCALL_INTERRUPT_PRIORITY )
 244:Middlewares/Third_Party/FreeRTOS/Source/portable/GCC/ARM_CM4F/portmacro.h **** 	);
 245:Middlewares/Third_Party/FreeRTOS/Source/portable/GCC/ARM_CM4F/portmacro.h **** }
 246:Middlewares/Third_Party/FreeRTOS/Source/portable/GCC/ARM_CM4F/portmacro.h **** 
 247:Middlewares/Third_Party/FreeRTOS/Source/portable/GCC/ARM_CM4F/portmacro.h **** /*-----------------------------------------------------------*/
 248:Middlewares/Third_Party/FreeRTOS/Source/portable/GCC/ARM_CM4F/portmacro.h **** 
 249:Middlewares/Third_Party/FreeRTOS/Source/portable/GCC/ARM_CM4F/portmacro.h **** portFORCE_INLINE static uint32_t ulPortRaiseBASEPRI( void )
 250:Middlewares/Third_Party/FreeRTOS/Source/portable/GCC/ARM_CM4F/portmacro.h **** {
ARM GAS  C:\Users\ALEX'S~1\AppData\Local\Temp\ccjCNn9l.s 			page 52


 251:Middlewares/Third_Party/FreeRTOS/Source/portable/GCC/ARM_CM4F/portmacro.h **** uint32_t ulOriginalBASEPRI, ulNewBASEPRI;
 252:Middlewares/Third_Party/FreeRTOS/Source/portable/GCC/ARM_CM4F/portmacro.h **** 
 253:Middlewares/Third_Party/FreeRTOS/Source/portable/GCC/ARM_CM4F/portmacro.h **** 	__asm volatile
 1557              		.loc 3 253 0
 1558              		.syntax unified
 1559              	@ 253 "Middlewares/Third_Party/FreeRTOS/Source/portable/GCC/ARM_CM4F/portmacro.h" 1
 1560 000e EFF31184 			mrs r4, basepri											
 1561 0012 4FF05003 		mov r3, #80												
 1562 0016 83F31188 		msr basepri, r3											
 1563 001a BFF36F8F 		isb														
 1564 001e BFF34F8F 		dsb														
 1565              	
 1566              	@ 0 "" 2
 1567              		.thumb
 1568              		.syntax unified
 1569              	.LBE158:
 1570              	.LBE157:
 987:Middlewares/Third_Party/FreeRTOS/Source/CMSIS_RTOS/cmsis_os.c ****     dummy = portSET_INTERRUPT_MASK_FROM_ISR();
 1571              		.loc 1 987 0
 1572 0022 A446     		mov	ip, r4
 1573              	.LVL103:
 1574              	.L140:
 988:Middlewares/Third_Party/FreeRTOS/Source/CMSIS_RTOS/cmsis_os.c ****   }
 989:Middlewares/Third_Party/FreeRTOS/Source/CMSIS_RTOS/cmsis_os.c ****   else {
 990:Middlewares/Third_Party/FreeRTOS/Source/CMSIS_RTOS/cmsis_os.c ****     vPortEnterCritical();
 991:Middlewares/Third_Party/FreeRTOS/Source/CMSIS_RTOS/cmsis_os.c ****   }
 992:Middlewares/Third_Party/FreeRTOS/Source/CMSIS_RTOS/cmsis_os.c ****   
 993:Middlewares/Third_Party/FreeRTOS/Source/CMSIS_RTOS/cmsis_os.c ****   for (i = 0; i < pool_id->pool_sz; i++) {
 1575              		.loc 1 993 0
 1576 0024 D8F80840 		ldr	r4, [r8, #8]
 1577 0028 E4B1     		cbz	r4, .L141
 994:Middlewares/Third_Party/FreeRTOS/Source/CMSIS_RTOS/cmsis_os.c ****     index = pool_id->currentIndex + i;
 1578              		.loc 1 994 0
 1579 002a D8F81030 		ldr	r3, [r8, #16]
 995:Middlewares/Third_Party/FreeRTOS/Source/CMSIS_RTOS/cmsis_os.c ****     if (index >= pool_id->pool_sz) {
 996:Middlewares/Third_Party/FreeRTOS/Source/CMSIS_RTOS/cmsis_os.c ****       index = 0;
 997:Middlewares/Third_Party/FreeRTOS/Source/CMSIS_RTOS/cmsis_os.c ****     }
 998:Middlewares/Third_Party/FreeRTOS/Source/CMSIS_RTOS/cmsis_os.c ****     
 999:Middlewares/Third_Party/FreeRTOS/Source/CMSIS_RTOS/cmsis_os.c ****     if (pool_id->markers[index] == 0) {
 1580              		.loc 1 999 0
 1581 002e D8F80460 		ldr	r6, [r8, #4]
 1582 0032 E718     		adds	r7, r4, r3
 1583 0034 01E0     		b	.L144
 1584              	.LVL104:
 1585              	.L143:
 993:Middlewares/Third_Party/FreeRTOS/Source/CMSIS_RTOS/cmsis_os.c ****     index = pool_id->currentIndex + i;
 1586              		.loc 1 993 0 discriminator 2
 1587 0036 9F42     		cmp	r7, r3
 1588 0038 1CD0     		beq	.L151
 1589              	.LVL105:
 1590              	.L144:
 995:Middlewares/Third_Party/FreeRTOS/Source/CMSIS_RTOS/cmsis_os.c ****     if (index >= pool_id->pool_sz) {
 1591              		.loc 1 995 0
 1592 003a 9C42     		cmp	r4, r3
 1593 003c 8ABF     		itet	hi
 1594 003e F218     		addhi	r2, r6, r3
 1595 0040 3246     		movls	r2, r6
ARM GAS  C:\Users\ALEX'S~1\AppData\Local\Temp\ccjCNn9l.s 			page 53


 1596 0042 1D46     		movhi	r5, r3
 1597              		.loc 1 999 0
 1598 0044 1178     		ldrb	r1, [r2]	@ zero_extendqisi2
 996:Middlewares/Third_Party/FreeRTOS/Source/CMSIS_RTOS/cmsis_os.c ****     }
 1599              		.loc 1 996 0
 1600 0046 98BF     		it	ls
 1601 0048 0025     		movls	r5, #0
 1602 004a 0133     		adds	r3, r3, #1
 1603              		.loc 1 999 0
 1604 004c 0029     		cmp	r1, #0
 1605 004e F2D1     		bne	.L143
1000:Middlewares/Third_Party/FreeRTOS/Source/CMSIS_RTOS/cmsis_os.c ****       pool_id->markers[index] = 1;
 1606              		.loc 1 1000 0
 1607 0050 0123     		movs	r3, #1
 1608 0052 1370     		strb	r3, [r2]
1001:Middlewares/Third_Party/FreeRTOS/Source/CMSIS_RTOS/cmsis_os.c ****       p = (void *)((uint32_t)(pool_id->pool) + (index * pool_id->item_sz));
 1609              		.loc 1 1001 0
 1610 0054 D8F80C40 		ldr	r4, [r8, #12]
 1611 0058 D8F80000 		ldr	r0, [r8]
1002:Middlewares/Third_Party/FreeRTOS/Source/CMSIS_RTOS/cmsis_os.c ****       pool_id->currentIndex = index;
 1612              		.loc 1 1002 0
 1613 005c C8F81050 		str	r5, [r8, #16]
1001:Middlewares/Third_Party/FreeRTOS/Source/CMSIS_RTOS/cmsis_os.c ****       p = (void *)((uint32_t)(pool_id->pool) + (index * pool_id->item_sz));
 1614              		.loc 1 1001 0
 1615 0060 04FB0504 		mla	r4, r4, r5, r0
 1616              	.LVL106:
 1617              	.L141:
 1618              	.LBB159:
 1619              	.LBB160:
 1620              	.LBB161:
 1621              		.loc 2 109 0
 1622              		.syntax unified
 1623              	@ 109 "Drivers/CMSIS/Include/cmsis_gcc.h" 1
 1624 0064 EFF30583 		MRS r3, ipsr
 1625              	@ 0 "" 2
 1626              		.thumb
 1627              		.syntax unified
 1628              	.LBE161:
 1629              	.LBE160:
 1630              	.LBE159:
1003:Middlewares/Third_Party/FreeRTOS/Source/CMSIS_RTOS/cmsis_os.c ****       break;
1004:Middlewares/Third_Party/FreeRTOS/Source/CMSIS_RTOS/cmsis_os.c ****     }
1005:Middlewares/Third_Party/FreeRTOS/Source/CMSIS_RTOS/cmsis_os.c ****   }
1006:Middlewares/Third_Party/FreeRTOS/Source/CMSIS_RTOS/cmsis_os.c ****   
1007:Middlewares/Third_Party/FreeRTOS/Source/CMSIS_RTOS/cmsis_os.c ****   if (inHandlerMode()) {
 1631              		.loc 1 1007 0
 1632 0068 4BB1     		cbz	r3, .L145
 1633              	.L152:
 1634              	.LVL107:
 1635              	.LBB164:
 1636              	.LBB165:
 254:Middlewares/Third_Party/FreeRTOS/Source/portable/GCC/ARM_CM4F/portmacro.h **** 	(
 255:Middlewares/Third_Party/FreeRTOS/Source/portable/GCC/ARM_CM4F/portmacro.h **** 		"	mrs %0, basepri											\n" \
 256:Middlewares/Third_Party/FreeRTOS/Source/portable/GCC/ARM_CM4F/portmacro.h **** 		"	mov %1, %2												\n"	\
 257:Middlewares/Third_Party/FreeRTOS/Source/portable/GCC/ARM_CM4F/portmacro.h **** 		"	msr basepri, %1											\n" \
 258:Middlewares/Third_Party/FreeRTOS/Source/portable/GCC/ARM_CM4F/portmacro.h **** 		"	isb														\n" \
 259:Middlewares/Third_Party/FreeRTOS/Source/portable/GCC/ARM_CM4F/portmacro.h **** 		"	dsb														\n" \
ARM GAS  C:\Users\ALEX'S~1\AppData\Local\Temp\ccjCNn9l.s 			page 54


 260:Middlewares/Third_Party/FreeRTOS/Source/portable/GCC/ARM_CM4F/portmacro.h **** 		:"=r" (ulOriginalBASEPRI), "=r" (ulNewBASEPRI) : "i" ( configMAX_SYSCALL_INTERRUPT_PRIORITY )
 261:Middlewares/Third_Party/FreeRTOS/Source/portable/GCC/ARM_CM4F/portmacro.h **** 	);
 262:Middlewares/Third_Party/FreeRTOS/Source/portable/GCC/ARM_CM4F/portmacro.h **** 
 263:Middlewares/Third_Party/FreeRTOS/Source/portable/GCC/ARM_CM4F/portmacro.h **** 	/* This return will not be reached but is necessary to prevent compiler
 264:Middlewares/Third_Party/FreeRTOS/Source/portable/GCC/ARM_CM4F/portmacro.h **** 	warnings. */
 265:Middlewares/Third_Party/FreeRTOS/Source/portable/GCC/ARM_CM4F/portmacro.h **** 	return ulOriginalBASEPRI;
 266:Middlewares/Third_Party/FreeRTOS/Source/portable/GCC/ARM_CM4F/portmacro.h **** }
 267:Middlewares/Third_Party/FreeRTOS/Source/portable/GCC/ARM_CM4F/portmacro.h **** /*-----------------------------------------------------------*/
 268:Middlewares/Third_Party/FreeRTOS/Source/portable/GCC/ARM_CM4F/portmacro.h **** 
 269:Middlewares/Third_Party/FreeRTOS/Source/portable/GCC/ARM_CM4F/portmacro.h **** portFORCE_INLINE static void vPortSetBASEPRI( uint32_t ulNewMaskValue )
 270:Middlewares/Third_Party/FreeRTOS/Source/portable/GCC/ARM_CM4F/portmacro.h **** {
 271:Middlewares/Third_Party/FreeRTOS/Source/portable/GCC/ARM_CM4F/portmacro.h **** 	__asm volatile
 1637              		.loc 3 271 0
 1638              		.syntax unified
 1639              	@ 271 "Middlewares/Third_Party/FreeRTOS/Source/portable/GCC/ARM_CM4F/portmacro.h" 1
 1640 006a 8CF31188 			msr basepri, ip	
 1641              	@ 0 "" 2
 1642              		.thumb
 1643              		.syntax unified
 1644              	.LBE165:
 1645              	.LBE164:
1008:Middlewares/Third_Party/FreeRTOS/Source/CMSIS_RTOS/cmsis_os.c ****     portCLEAR_INTERRUPT_MASK_FROM_ISR(dummy);
1009:Middlewares/Third_Party/FreeRTOS/Source/CMSIS_RTOS/cmsis_os.c ****   }
1010:Middlewares/Third_Party/FreeRTOS/Source/CMSIS_RTOS/cmsis_os.c ****   else {
1011:Middlewares/Third_Party/FreeRTOS/Source/CMSIS_RTOS/cmsis_os.c ****     vPortExitCritical();
1012:Middlewares/Third_Party/FreeRTOS/Source/CMSIS_RTOS/cmsis_os.c ****   }
1013:Middlewares/Third_Party/FreeRTOS/Source/CMSIS_RTOS/cmsis_os.c ****   
1014:Middlewares/Third_Party/FreeRTOS/Source/CMSIS_RTOS/cmsis_os.c ****   return p;
1015:Middlewares/Third_Party/FreeRTOS/Source/CMSIS_RTOS/cmsis_os.c **** }
 1646              		.loc 1 1015 0
 1647 006e 2046     		mov	r0, r4
 1648 0070 BDE8F081 		pop	{r4, r5, r6, r7, r8, pc}
 1649              	.LVL108:
 1650              	.L151:
 982:Middlewares/Third_Party/FreeRTOS/Source/CMSIS_RTOS/cmsis_os.c ****   uint32_t i;
 1651              		.loc 1 982 0
 1652 0074 0024     		movs	r4, #0
 1653              	.LVL109:
 1654              	.LBB166:
 1655              	.LBB163:
 1656              	.LBB162:
 1657              		.loc 2 109 0
 1658              		.syntax unified
 1659              	@ 109 "Drivers/CMSIS/Include/cmsis_gcc.h" 1
 1660 0076 EFF30583 		MRS r3, ipsr
 1661              	@ 0 "" 2
 1662              		.thumb
 1663              		.syntax unified
 1664              	.LBE162:
 1665              	.LBE163:
 1666              	.LBE166:
1007:Middlewares/Third_Party/FreeRTOS/Source/CMSIS_RTOS/cmsis_os.c ****     portCLEAR_INTERRUPT_MASK_FROM_ISR(dummy);
 1667              		.loc 1 1007 0
 1668 007a 002B     		cmp	r3, #0
 1669 007c F5D1     		bne	.L152
 1670              	.LVL110:
 1671              	.L145:
ARM GAS  C:\Users\ALEX'S~1\AppData\Local\Temp\ccjCNn9l.s 			page 55


1011:Middlewares/Third_Party/FreeRTOS/Source/CMSIS_RTOS/cmsis_os.c ****   }
 1672              		.loc 1 1011 0
 1673 007e FFF7FEFF 		bl	vPortExitCritical
 1674              	.LVL111:
 1675              		.loc 1 1015 0
 1676 0082 2046     		mov	r0, r4
 1677 0084 BDE8F081 		pop	{r4, r5, r6, r7, r8, pc}
 1678              	.LVL112:
 1679              	.L139:
 990:Middlewares/Third_Party/FreeRTOS/Source/CMSIS_RTOS/cmsis_os.c ****   }
 1680              		.loc 1 990 0
 1681 0088 FFF7FEFF 		bl	vPortEnterCritical
 1682              	.LVL113:
 981:Middlewares/Third_Party/FreeRTOS/Source/CMSIS_RTOS/cmsis_os.c ****   void *p = NULL;
 1683              		.loc 1 981 0
 1684 008c A446     		mov	ip, r4
 1685 008e C9E7     		b	.L140
 1686              		.cfi_endproc
 1687              	.LFE58:
 1689              		.section	.text.osPoolCAlloc,"ax",%progbits
 1690              		.align	1
 1691              		.p2align 2,,3
 1692              		.global	osPoolCAlloc
 1693              		.syntax unified
 1694              		.thumb
 1695              		.thumb_func
 1696              		.fpu fpv4-sp-d16
 1698              	osPoolCAlloc:
 1699              	.LFB59:
1016:Middlewares/Third_Party/FreeRTOS/Source/CMSIS_RTOS/cmsis_os.c **** 
1017:Middlewares/Third_Party/FreeRTOS/Source/CMSIS_RTOS/cmsis_os.c **** /**
1018:Middlewares/Third_Party/FreeRTOS/Source/CMSIS_RTOS/cmsis_os.c **** * @brief Allocate a memory block from a memory pool and set memory block to zero
1019:Middlewares/Third_Party/FreeRTOS/Source/CMSIS_RTOS/cmsis_os.c **** * @param  pool_id       memory pool ID obtain referenced with \ref osPoolCreate.
1020:Middlewares/Third_Party/FreeRTOS/Source/CMSIS_RTOS/cmsis_os.c **** * @retval  address of the allocated memory block or NULL in case of no memory available.
1021:Middlewares/Third_Party/FreeRTOS/Source/CMSIS_RTOS/cmsis_os.c **** * @note   MUST REMAIN UNCHANGED: \b osPoolCAlloc shall be consistent in every CMSIS-RTOS.
1022:Middlewares/Third_Party/FreeRTOS/Source/CMSIS_RTOS/cmsis_os.c **** */
1023:Middlewares/Third_Party/FreeRTOS/Source/CMSIS_RTOS/cmsis_os.c **** void *osPoolCAlloc (osPoolId pool_id)
1024:Middlewares/Third_Party/FreeRTOS/Source/CMSIS_RTOS/cmsis_os.c **** {
 1700              		.loc 1 1024 0
 1701              		.cfi_startproc
 1702              		@ args = 0, pretend = 0, frame = 0
 1703              		@ frame_needed = 0, uses_anonymous_args = 0
 1704              	.LVL114:
 1705 0000 2DE9F041 		push	{r4, r5, r6, r7, r8, lr}
 1706              	.LCFI57:
 1707              		.cfi_def_cfa_offset 24
 1708              		.cfi_offset 4, -24
 1709              		.cfi_offset 5, -20
 1710              		.cfi_offset 6, -16
 1711              		.cfi_offset 7, -12
 1712              		.cfi_offset 8, -8
 1713              		.cfi_offset 14, -4
 1714              		.loc 1 1024 0
 1715 0004 8046     		mov	r8, r0
 1716              	.LVL115:
 1717              	.LBB179:
 1718              	.LBB180:
ARM GAS  C:\Users\ALEX'S~1\AppData\Local\Temp\ccjCNn9l.s 			page 56


 1719              	.LBB181:
 1720              	.LBB182:
 1721              	.LBB183:
 1722              		.loc 2 109 0
 1723              		.syntax unified
 1724              	@ 109 "Drivers/CMSIS/Include/cmsis_gcc.h" 1
 1725 0006 EFF30584 		MRS r4, ipsr
 1726              	@ 0 "" 2
 1727              		.thumb
 1728              		.syntax unified
 1729              	.LBE183:
 1730              	.LBE182:
 1731              	.LBE181:
 986:Middlewares/Third_Party/FreeRTOS/Source/CMSIS_RTOS/cmsis_os.c ****     dummy = portSET_INTERRUPT_MASK_FROM_ISR();
 1732              		.loc 1 986 0
 1733 000a 002C     		cmp	r4, #0
 1734 000c 3DD0     		beq	.L154
 1735              	.LBB184:
 1736              	.LBB185:
 253:Middlewares/Third_Party/FreeRTOS/Source/portable/GCC/ARM_CM4F/portmacro.h **** 	(
 1737              		.loc 3 253 0
 1738              		.syntax unified
 1739              	@ 253 "Middlewares/Third_Party/FreeRTOS/Source/portable/GCC/ARM_CM4F/portmacro.h" 1
 1740 000e EFF31184 			mrs r4, basepri											
 1741 0012 4FF05003 		mov r3, #80												
 1742 0016 83F31188 		msr basepri, r3											
 1743 001a BFF36F8F 		isb														
 1744 001e BFF34F8F 		dsb														
 1745              	
 1746              	@ 0 "" 2
 1747              		.thumb
 1748              		.syntax unified
 1749              	.LBE185:
 1750              	.LBE184:
 987:Middlewares/Third_Party/FreeRTOS/Source/CMSIS_RTOS/cmsis_os.c ****   }
 1751              		.loc 1 987 0
 1752 0022 A446     		mov	ip, r4
 1753              	.LVL116:
 1754              	.L155:
 993:Middlewares/Third_Party/FreeRTOS/Source/CMSIS_RTOS/cmsis_os.c ****     index = pool_id->currentIndex + i;
 1755              		.loc 1 993 0
 1756 0024 D8F80820 		ldr	r2, [r8, #8]
 1757 0028 9AB3     		cbz	r2, .L163
 994:Middlewares/Third_Party/FreeRTOS/Source/CMSIS_RTOS/cmsis_os.c ****     if (index >= pool_id->pool_sz) {
 1758              		.loc 1 994 0
 1759 002a D8F81030 		ldr	r3, [r8, #16]
 999:Middlewares/Third_Party/FreeRTOS/Source/CMSIS_RTOS/cmsis_os.c ****       pool_id->markers[index] = 1;
 1760              		.loc 1 999 0
 1761 002e D8F80460 		ldr	r6, [r8, #4]
 1762 0032 9F18     		adds	r7, r3, r2
 1763 0034 01E0     		b	.L159
 1764              	.LVL117:
 1765              	.L158:
 993:Middlewares/Third_Party/FreeRTOS/Source/CMSIS_RTOS/cmsis_os.c ****     index = pool_id->currentIndex + i;
 1766              		.loc 1 993 0
 1767 0036 9F42     		cmp	r7, r3
 1768 0038 1FD0     		beq	.L170
ARM GAS  C:\Users\ALEX'S~1\AppData\Local\Temp\ccjCNn9l.s 			page 57


 1769              	.LVL118:
 1770              	.L159:
 995:Middlewares/Third_Party/FreeRTOS/Source/CMSIS_RTOS/cmsis_os.c ****       index = 0;
 1771              		.loc 1 995 0
 1772 003a 9342     		cmp	r3, r2
 1773 003c 36BF     		itet	cc
 1774 003e F118     		addcc	r1, r6, r3
 1775 0040 3146     		movcs	r1, r6
 1776 0042 1C46     		movcc	r4, r3
 999:Middlewares/Third_Party/FreeRTOS/Source/CMSIS_RTOS/cmsis_os.c ****       pool_id->markers[index] = 1;
 1777              		.loc 1 999 0
 1778 0044 0D78     		ldrb	r5, [r1]	@ zero_extendqisi2
 996:Middlewares/Third_Party/FreeRTOS/Source/CMSIS_RTOS/cmsis_os.c ****     }
 1779              		.loc 1 996 0
 1780 0046 28BF     		it	cs
 1781 0048 0024     		movcs	r4, #0
 1782 004a 0133     		adds	r3, r3, #1
 999:Middlewares/Third_Party/FreeRTOS/Source/CMSIS_RTOS/cmsis_os.c ****       pool_id->markers[index] = 1;
 1783              		.loc 1 999 0
 1784 004c 002D     		cmp	r5, #0
 1785 004e F2D1     		bne	.L158
1000:Middlewares/Third_Party/FreeRTOS/Source/CMSIS_RTOS/cmsis_os.c ****       p = (void *)((uint32_t)(pool_id->pool) + (index * pool_id->item_sz));
 1786              		.loc 1 1000 0
 1787 0050 0123     		movs	r3, #1
 1788 0052 0B70     		strb	r3, [r1]
1001:Middlewares/Third_Party/FreeRTOS/Source/CMSIS_RTOS/cmsis_os.c ****       pool_id->currentIndex = index;
 1789              		.loc 1 1001 0
 1790 0054 D8F80C20 		ldr	r2, [r8, #12]
 1791 0058 D8F80000 		ldr	r0, [r8]
1002:Middlewares/Third_Party/FreeRTOS/Source/CMSIS_RTOS/cmsis_os.c ****       break;
 1792              		.loc 1 1002 0
 1793 005c C8F81040 		str	r4, [r8, #16]
1001:Middlewares/Third_Party/FreeRTOS/Source/CMSIS_RTOS/cmsis_os.c ****       pool_id->currentIndex = index;
 1794              		.loc 1 1001 0
 1795 0060 02FB0404 		mla	r4, r2, r4, r0
 1796              	.LVL119:
 1797              	.L156:
 1798              	.LBB186:
 1799              	.LBB187:
 1800              	.LBB188:
 1801              		.loc 2 109 0
 1802              		.syntax unified
 1803              	@ 109 "Drivers/CMSIS/Include/cmsis_gcc.h" 1
 1804 0064 EFF30583 		MRS r3, ipsr
 1805              	@ 0 "" 2
 1806              		.thumb
 1807              		.syntax unified
 1808              	.LBE188:
 1809              	.LBE187:
 1810              	.LBE186:
1007:Middlewares/Third_Party/FreeRTOS/Source/CMSIS_RTOS/cmsis_os.c ****     portCLEAR_INTERRUPT_MASK_FROM_ISR(dummy);
 1811              		.loc 1 1007 0
 1812 0068 63B1     		cbz	r3, .L160
 1813              	.L171:
 1814              	.LVL120:
 1815              	.LBB191:
 1816              	.LBB192:
ARM GAS  C:\Users\ALEX'S~1\AppData\Local\Temp\ccjCNn9l.s 			page 58


 1817              		.loc 3 271 0
 1818              		.syntax unified
 1819              	@ 271 "Middlewares/Third_Party/FreeRTOS/Source/portable/GCC/ARM_CM4F/portmacro.h" 1
 1820 006a 8CF31188 			msr basepri, ip	
 1821              	@ 0 "" 2
 1822              	.LVL121:
 1823              		.thumb
 1824              		.syntax unified
 1825              	.L161:
 1826              	.LBE192:
 1827              	.LBE191:
 1828              	.LBE180:
 1829              	.LBE179:
1025:Middlewares/Third_Party/FreeRTOS/Source/CMSIS_RTOS/cmsis_os.c ****   void *p = osPoolAlloc(pool_id);
1026:Middlewares/Third_Party/FreeRTOS/Source/CMSIS_RTOS/cmsis_os.c ****   
1027:Middlewares/Third_Party/FreeRTOS/Source/CMSIS_RTOS/cmsis_os.c ****   if (p != NULL)
 1830              		.loc 1 1027 0
 1831 006e 0CB1     		cbz	r4, .L153
1028:Middlewares/Third_Party/FreeRTOS/Source/CMSIS_RTOS/cmsis_os.c ****   {
1029:Middlewares/Third_Party/FreeRTOS/Source/CMSIS_RTOS/cmsis_os.c ****     memset(p, 0, sizeof(pool_id->pool_sz));
 1832              		.loc 1 1029 0
 1833 0070 0023     		movs	r3, #0
 1834 0072 2360     		str	r3, [r4]	@ unaligned
 1835              	.L153:
1030:Middlewares/Third_Party/FreeRTOS/Source/CMSIS_RTOS/cmsis_os.c ****   }
1031:Middlewares/Third_Party/FreeRTOS/Source/CMSIS_RTOS/cmsis_os.c ****   
1032:Middlewares/Third_Party/FreeRTOS/Source/CMSIS_RTOS/cmsis_os.c ****   return p;
1033:Middlewares/Third_Party/FreeRTOS/Source/CMSIS_RTOS/cmsis_os.c **** }
 1836              		.loc 1 1033 0
 1837 0074 2046     		mov	r0, r4
 1838 0076 BDE8F081 		pop	{r4, r5, r6, r7, r8, pc}
 1839              	.LVL122:
 1840              	.L170:
 1841              	.LBB195:
 1842              	.LBB194:
 982:Middlewares/Third_Party/FreeRTOS/Source/CMSIS_RTOS/cmsis_os.c ****   uint32_t i;
 1843              		.loc 1 982 0
 1844 007a 0024     		movs	r4, #0
 1845              	.LVL123:
 1846              	.LBB193:
 1847              	.LBB190:
 1848              	.LBB189:
 1849              		.loc 2 109 0
 1850              		.syntax unified
 1851              	@ 109 "Drivers/CMSIS/Include/cmsis_gcc.h" 1
 1852 007c EFF30583 		MRS r3, ipsr
 1853              	@ 0 "" 2
 1854              		.thumb
 1855              		.syntax unified
 1856              	.LBE189:
 1857              	.LBE190:
 1858              	.LBE193:
1007:Middlewares/Third_Party/FreeRTOS/Source/CMSIS_RTOS/cmsis_os.c ****     portCLEAR_INTERRUPT_MASK_FROM_ISR(dummy);
 1859              		.loc 1 1007 0
 1860 0080 002B     		cmp	r3, #0
 1861 0082 F2D1     		bne	.L171
 1862              	.LVL124:
ARM GAS  C:\Users\ALEX'S~1\AppData\Local\Temp\ccjCNn9l.s 			page 59


 1863              	.L160:
1011:Middlewares/Third_Party/FreeRTOS/Source/CMSIS_RTOS/cmsis_os.c ****   }
 1864              		.loc 1 1011 0
 1865 0084 FFF7FEFF 		bl	vPortExitCritical
 1866              	.LVL125:
 1867 0088 F1E7     		b	.L161
 1868              	.LVL126:
 1869              	.L154:
 990:Middlewares/Third_Party/FreeRTOS/Source/CMSIS_RTOS/cmsis_os.c ****   }
 1870              		.loc 1 990 0
 1871 008a FFF7FEFF 		bl	vPortEnterCritical
 1872              	.LVL127:
 981:Middlewares/Third_Party/FreeRTOS/Source/CMSIS_RTOS/cmsis_os.c ****   void *p = NULL;
 1873              		.loc 1 981 0
 1874 008e A446     		mov	ip, r4
 1875 0090 C8E7     		b	.L155
 1876              	.LVL128:
 1877              	.L163:
 982:Middlewares/Third_Party/FreeRTOS/Source/CMSIS_RTOS/cmsis_os.c ****   uint32_t i;
 1878              		.loc 1 982 0
 1879 0092 1446     		mov	r4, r2
 1880 0094 E6E7     		b	.L156
 1881              	.LBE194:
 1882              	.LBE195:
 1883              		.cfi_endproc
 1884              	.LFE59:
 1886 0096 00BF     		.section	.text.osPoolFree,"ax",%progbits
 1887              		.align	1
 1888              		.p2align 2,,3
 1889              		.global	osPoolFree
 1890              		.syntax unified
 1891              		.thumb
 1892              		.thumb_func
 1893              		.fpu fpv4-sp-d16
 1895              	osPoolFree:
 1896              	.LFB60:
1034:Middlewares/Third_Party/FreeRTOS/Source/CMSIS_RTOS/cmsis_os.c **** 
1035:Middlewares/Third_Party/FreeRTOS/Source/CMSIS_RTOS/cmsis_os.c **** /**
1036:Middlewares/Third_Party/FreeRTOS/Source/CMSIS_RTOS/cmsis_os.c **** * @brief Return an allocated memory block back to a specific memory pool
1037:Middlewares/Third_Party/FreeRTOS/Source/CMSIS_RTOS/cmsis_os.c **** * @param  pool_id       memory pool ID obtain referenced with \ref osPoolCreate.
1038:Middlewares/Third_Party/FreeRTOS/Source/CMSIS_RTOS/cmsis_os.c **** * @param  block         address of the allocated memory block that is returned to the memory pool.
1039:Middlewares/Third_Party/FreeRTOS/Source/CMSIS_RTOS/cmsis_os.c **** * @retval  status code that indicates the execution status of the function.
1040:Middlewares/Third_Party/FreeRTOS/Source/CMSIS_RTOS/cmsis_os.c **** * @note   MUST REMAIN UNCHANGED: \b osPoolFree shall be consistent in every CMSIS-RTOS.
1041:Middlewares/Third_Party/FreeRTOS/Source/CMSIS_RTOS/cmsis_os.c **** */
1042:Middlewares/Third_Party/FreeRTOS/Source/CMSIS_RTOS/cmsis_os.c **** osStatus osPoolFree (osPoolId pool_id, void *block)
1043:Middlewares/Third_Party/FreeRTOS/Source/CMSIS_RTOS/cmsis_os.c **** {
 1897              		.loc 1 1043 0
 1898              		.cfi_startproc
 1899              		@ args = 0, pretend = 0, frame = 0
 1900              		@ frame_needed = 0, uses_anonymous_args = 0
 1901              		@ link register save eliminated.
 1902              	.LVL129:
1044:Middlewares/Third_Party/FreeRTOS/Source/CMSIS_RTOS/cmsis_os.c ****   uint32_t index;
1045:Middlewares/Third_Party/FreeRTOS/Source/CMSIS_RTOS/cmsis_os.c ****   
1046:Middlewares/Third_Party/FreeRTOS/Source/CMSIS_RTOS/cmsis_os.c ****   if (pool_id == NULL) {
 1903              		.loc 1 1046 0
 1904 0000 88B1     		cbz	r0, .L178
ARM GAS  C:\Users\ALEX'S~1\AppData\Local\Temp\ccjCNn9l.s 			page 60


1047:Middlewares/Third_Party/FreeRTOS/Source/CMSIS_RTOS/cmsis_os.c ****     return osErrorParameter;
1048:Middlewares/Third_Party/FreeRTOS/Source/CMSIS_RTOS/cmsis_os.c ****   }
1049:Middlewares/Third_Party/FreeRTOS/Source/CMSIS_RTOS/cmsis_os.c ****   
1050:Middlewares/Third_Party/FreeRTOS/Source/CMSIS_RTOS/cmsis_os.c ****   if (block == NULL) {
 1905              		.loc 1 1050 0
 1906 0002 81B1     		cbz	r1, .L178
1051:Middlewares/Third_Party/FreeRTOS/Source/CMSIS_RTOS/cmsis_os.c ****     return osErrorParameter;
1052:Middlewares/Third_Party/FreeRTOS/Source/CMSIS_RTOS/cmsis_os.c ****   }
1053:Middlewares/Third_Party/FreeRTOS/Source/CMSIS_RTOS/cmsis_os.c ****   
1054:Middlewares/Third_Party/FreeRTOS/Source/CMSIS_RTOS/cmsis_os.c ****   if (block < pool_id->pool) {
 1907              		.loc 1 1054 0
 1908 0004 0268     		ldr	r2, [r0]
 1909 0006 8A42     		cmp	r2, r1
 1910 0008 0DD8     		bhi	.L178
1055:Middlewares/Third_Party/FreeRTOS/Source/CMSIS_RTOS/cmsis_os.c ****     return osErrorParameter;
1056:Middlewares/Third_Party/FreeRTOS/Source/CMSIS_RTOS/cmsis_os.c ****   }
1057:Middlewares/Third_Party/FreeRTOS/Source/CMSIS_RTOS/cmsis_os.c ****   
1058:Middlewares/Third_Party/FreeRTOS/Source/CMSIS_RTOS/cmsis_os.c ****   index = (uint32_t)block - (uint32_t)(pool_id->pool);
1059:Middlewares/Third_Party/FreeRTOS/Source/CMSIS_RTOS/cmsis_os.c ****   if (index % pool_id->item_sz) {
 1911              		.loc 1 1059 0
 1912 000a C368     		ldr	r3, [r0, #12]
1058:Middlewares/Third_Party/FreeRTOS/Source/CMSIS_RTOS/cmsis_os.c ****   if (index % pool_id->item_sz) {
 1913              		.loc 1 1058 0
 1914 000c 891A     		subs	r1, r1, r2
 1915              	.LVL130:
 1916              		.loc 1 1059 0
 1917 000e B1FBF3F2 		udiv	r2, r1, r3
 1918 0012 03FB1211 		mls	r1, r3, r2, r1
 1919              	.LVL131:
 1920 0016 31B9     		cbnz	r1, .L178
 1921              	.LVL132:
1060:Middlewares/Third_Party/FreeRTOS/Source/CMSIS_RTOS/cmsis_os.c ****     return osErrorParameter;
1061:Middlewares/Third_Party/FreeRTOS/Source/CMSIS_RTOS/cmsis_os.c ****   }
1062:Middlewares/Third_Party/FreeRTOS/Source/CMSIS_RTOS/cmsis_os.c ****   index = index / pool_id->item_sz;
1063:Middlewares/Third_Party/FreeRTOS/Source/CMSIS_RTOS/cmsis_os.c ****   if (index >= pool_id->pool_sz) {
 1922              		.loc 1 1063 0
 1923 0018 8368     		ldr	r3, [r0, #8]
 1924 001a 9342     		cmp	r3, r2
 1925 001c 03D9     		bls	.L178
1064:Middlewares/Third_Party/FreeRTOS/Source/CMSIS_RTOS/cmsis_os.c ****     return osErrorParameter;
1065:Middlewares/Third_Party/FreeRTOS/Source/CMSIS_RTOS/cmsis_os.c ****   }
1066:Middlewares/Third_Party/FreeRTOS/Source/CMSIS_RTOS/cmsis_os.c ****   
1067:Middlewares/Third_Party/FreeRTOS/Source/CMSIS_RTOS/cmsis_os.c ****   pool_id->markers[index] = 0;
 1926              		.loc 1 1067 0
 1927 001e 4368     		ldr	r3, [r0, #4]
1068:Middlewares/Third_Party/FreeRTOS/Source/CMSIS_RTOS/cmsis_os.c ****   
1069:Middlewares/Third_Party/FreeRTOS/Source/CMSIS_RTOS/cmsis_os.c ****   return osOK;
 1928              		.loc 1 1069 0
 1929 0020 0846     		mov	r0, r1
 1930              	.LVL133:
1067:Middlewares/Third_Party/FreeRTOS/Source/CMSIS_RTOS/cmsis_os.c ****   
 1931              		.loc 1 1067 0
 1932 0022 9954     		strb	r1, [r3, r2]
 1933              		.loc 1 1069 0
 1934 0024 7047     		bx	lr
 1935              	.LVL134:
 1936              	.L178:
ARM GAS  C:\Users\ALEX'S~1\AppData\Local\Temp\ccjCNn9l.s 			page 61


1047:Middlewares/Third_Party/FreeRTOS/Source/CMSIS_RTOS/cmsis_os.c ****   }
 1937              		.loc 1 1047 0
 1938 0026 8020     		movs	r0, #128
 1939              	.LVL135:
1070:Middlewares/Third_Party/FreeRTOS/Source/CMSIS_RTOS/cmsis_os.c **** }
 1940              		.loc 1 1070 0
 1941 0028 7047     		bx	lr
 1942              		.cfi_endproc
 1943              	.LFE60:
 1945 002a 00BF     		.section	.text.osMessageCreate,"ax",%progbits
 1946              		.align	1
 1947              		.p2align 2,,3
 1948              		.global	osMessageCreate
 1949              		.syntax unified
 1950              		.thumb
 1951              		.thumb_func
 1952              		.fpu fpv4-sp-d16
 1954              	osMessageCreate:
 1955              	.LFB61:
1071:Middlewares/Third_Party/FreeRTOS/Source/CMSIS_RTOS/cmsis_os.c **** 
1072:Middlewares/Third_Party/FreeRTOS/Source/CMSIS_RTOS/cmsis_os.c **** 
1073:Middlewares/Third_Party/FreeRTOS/Source/CMSIS_RTOS/cmsis_os.c **** #endif   /* Use Memory Pool Management */
1074:Middlewares/Third_Party/FreeRTOS/Source/CMSIS_RTOS/cmsis_os.c **** 
1075:Middlewares/Third_Party/FreeRTOS/Source/CMSIS_RTOS/cmsis_os.c **** /*******************   Message Queue Management Functions  *********************/
1076:Middlewares/Third_Party/FreeRTOS/Source/CMSIS_RTOS/cmsis_os.c **** 
1077:Middlewares/Third_Party/FreeRTOS/Source/CMSIS_RTOS/cmsis_os.c **** #if (defined (osFeature_MessageQ)  &&  (osFeature_MessageQ != 0)) /* Use Message Queues */
1078:Middlewares/Third_Party/FreeRTOS/Source/CMSIS_RTOS/cmsis_os.c **** 
1079:Middlewares/Third_Party/FreeRTOS/Source/CMSIS_RTOS/cmsis_os.c **** /**
1080:Middlewares/Third_Party/FreeRTOS/Source/CMSIS_RTOS/cmsis_os.c **** * @brief Create and Initialize a Message Queue
1081:Middlewares/Third_Party/FreeRTOS/Source/CMSIS_RTOS/cmsis_os.c **** * @param queue_def     queue definition referenced with \ref osMessageQ.
1082:Middlewares/Third_Party/FreeRTOS/Source/CMSIS_RTOS/cmsis_os.c **** * @param  thread_id     thread ID (obtained by \ref osThreadCreate or \ref osThreadGetId) or NULL.
1083:Middlewares/Third_Party/FreeRTOS/Source/CMSIS_RTOS/cmsis_os.c **** * @retval  message queue ID for reference by other functions or NULL in case of error.
1084:Middlewares/Third_Party/FreeRTOS/Source/CMSIS_RTOS/cmsis_os.c **** * @note   MUST REMAIN UNCHANGED: \b osMessageCreate shall be consistent in every CMSIS-RTOS.
1085:Middlewares/Third_Party/FreeRTOS/Source/CMSIS_RTOS/cmsis_os.c **** */
1086:Middlewares/Third_Party/FreeRTOS/Source/CMSIS_RTOS/cmsis_os.c **** osMessageQId osMessageCreate (const osMessageQDef_t *queue_def, osThreadId thread_id)
1087:Middlewares/Third_Party/FreeRTOS/Source/CMSIS_RTOS/cmsis_os.c **** {
 1956              		.loc 1 1087 0
 1957              		.cfi_startproc
 1958              		@ args = 0, pretend = 0, frame = 0
 1959              		@ frame_needed = 0, uses_anonymous_args = 0
 1960              		@ link register save eliminated.
 1961              	.LVL136:
1088:Middlewares/Third_Party/FreeRTOS/Source/CMSIS_RTOS/cmsis_os.c ****   (void) thread_id;
1089:Middlewares/Third_Party/FreeRTOS/Source/CMSIS_RTOS/cmsis_os.c ****   
1090:Middlewares/Third_Party/FreeRTOS/Source/CMSIS_RTOS/cmsis_os.c **** #if( configSUPPORT_STATIC_ALLOCATION == 1 ) && ( configSUPPORT_DYNAMIC_ALLOCATION == 1 )
1091:Middlewares/Third_Party/FreeRTOS/Source/CMSIS_RTOS/cmsis_os.c **** 
1092:Middlewares/Third_Party/FreeRTOS/Source/CMSIS_RTOS/cmsis_os.c ****   if ((queue_def->buffer != NULL) && (queue_def->controlblock != NULL)) {
1093:Middlewares/Third_Party/FreeRTOS/Source/CMSIS_RTOS/cmsis_os.c ****     return xQueueCreateStatic(queue_def->queue_sz, queue_def->item_sz, queue_def->buffer, queue_def
1094:Middlewares/Third_Party/FreeRTOS/Source/CMSIS_RTOS/cmsis_os.c ****   }
1095:Middlewares/Third_Party/FreeRTOS/Source/CMSIS_RTOS/cmsis_os.c ****   else {
1096:Middlewares/Third_Party/FreeRTOS/Source/CMSIS_RTOS/cmsis_os.c ****     return xQueueCreate(queue_def->queue_sz, queue_def->item_sz);
1097:Middlewares/Third_Party/FreeRTOS/Source/CMSIS_RTOS/cmsis_os.c ****   }
1098:Middlewares/Third_Party/FreeRTOS/Source/CMSIS_RTOS/cmsis_os.c **** #elif ( configSUPPORT_STATIC_ALLOCATION == 1 )
1099:Middlewares/Third_Party/FreeRTOS/Source/CMSIS_RTOS/cmsis_os.c ****   return xQueueCreateStatic(queue_def->queue_sz, queue_def->item_sz, queue_def->buffer, queue_def->
1100:Middlewares/Third_Party/FreeRTOS/Source/CMSIS_RTOS/cmsis_os.c **** #else  
1101:Middlewares/Third_Party/FreeRTOS/Source/CMSIS_RTOS/cmsis_os.c ****   return xQueueCreate(queue_def->queue_sz, queue_def->item_sz);
 1962              		.loc 1 1101 0
ARM GAS  C:\Users\ALEX'S~1\AppData\Local\Temp\ccjCNn9l.s 			page 62


 1963 0000 0022     		movs	r2, #0
 1964 0002 D0E90001 		ldrd	r0, r1, [r0]
 1965              	.LVL137:
 1966 0006 FFF7FEBF 		b	xQueueGenericCreate
 1967              	.LVL138:
 1968              		.cfi_endproc
 1969              	.LFE61:
 1971 000a 00BF     		.section	.text.osMessagePut,"ax",%progbits
 1972              		.align	1
 1973              		.p2align 2,,3
 1974              		.global	osMessagePut
 1975              		.syntax unified
 1976              		.thumb
 1977              		.thumb_func
 1978              		.fpu fpv4-sp-d16
 1980              	osMessagePut:
 1981              	.LFB62:
1102:Middlewares/Third_Party/FreeRTOS/Source/CMSIS_RTOS/cmsis_os.c **** #endif
1103:Middlewares/Third_Party/FreeRTOS/Source/CMSIS_RTOS/cmsis_os.c **** }
1104:Middlewares/Third_Party/FreeRTOS/Source/CMSIS_RTOS/cmsis_os.c **** 
1105:Middlewares/Third_Party/FreeRTOS/Source/CMSIS_RTOS/cmsis_os.c **** /**
1106:Middlewares/Third_Party/FreeRTOS/Source/CMSIS_RTOS/cmsis_os.c **** * @brief Put a Message to a Queue.
1107:Middlewares/Third_Party/FreeRTOS/Source/CMSIS_RTOS/cmsis_os.c **** * @param  queue_id  message queue ID obtained with \ref osMessageCreate.
1108:Middlewares/Third_Party/FreeRTOS/Source/CMSIS_RTOS/cmsis_os.c **** * @param  info      message information.
1109:Middlewares/Third_Party/FreeRTOS/Source/CMSIS_RTOS/cmsis_os.c **** * @param  millisec  timeout value or 0 in case of no time-out.
1110:Middlewares/Third_Party/FreeRTOS/Source/CMSIS_RTOS/cmsis_os.c **** * @retval status code that indicates the execution status of the function.
1111:Middlewares/Third_Party/FreeRTOS/Source/CMSIS_RTOS/cmsis_os.c **** * @note   MUST REMAIN UNCHANGED: \b osMessagePut shall be consistent in every CMSIS-RTOS.
1112:Middlewares/Third_Party/FreeRTOS/Source/CMSIS_RTOS/cmsis_os.c **** */
1113:Middlewares/Third_Party/FreeRTOS/Source/CMSIS_RTOS/cmsis_os.c **** osStatus osMessagePut (osMessageQId queue_id, uint32_t info, uint32_t millisec)
1114:Middlewares/Third_Party/FreeRTOS/Source/CMSIS_RTOS/cmsis_os.c **** {
 1982              		.loc 1 1114 0
 1983              		.cfi_startproc
 1984              		@ args = 0, pretend = 0, frame = 16
 1985              		@ frame_needed = 0, uses_anonymous_args = 0
 1986              	.LVL139:
 1987 0000 10B5     		push	{r4, lr}
 1988              	.LCFI58:
 1989              		.cfi_def_cfa_offset 8
 1990              		.cfi_offset 4, -8
 1991              		.cfi_offset 14, -4
 1992 0002 84B0     		sub	sp, sp, #16
 1993              	.LCFI59:
 1994              		.cfi_def_cfa_offset 24
1115:Middlewares/Third_Party/FreeRTOS/Source/CMSIS_RTOS/cmsis_os.c ****   portBASE_TYPE taskWoken = pdFALSE;
 1995              		.loc 1 1115 0
 1996 0004 0024     		movs	r4, #0
1114:Middlewares/Third_Party/FreeRTOS/Source/CMSIS_RTOS/cmsis_os.c ****   portBASE_TYPE taskWoken = pdFALSE;
 1997              		.loc 1 1114 0
 1998 0006 0191     		str	r1, [sp, #4]
1116:Middlewares/Third_Party/FreeRTOS/Source/CMSIS_RTOS/cmsis_os.c ****   TickType_t ticks;
1117:Middlewares/Third_Party/FreeRTOS/Source/CMSIS_RTOS/cmsis_os.c ****   
1118:Middlewares/Third_Party/FreeRTOS/Source/CMSIS_RTOS/cmsis_os.c ****   ticks = millisec / portTICK_PERIOD_MS;
1119:Middlewares/Third_Party/FreeRTOS/Source/CMSIS_RTOS/cmsis_os.c ****   if (ticks == 0) {
1120:Middlewares/Third_Party/FreeRTOS/Source/CMSIS_RTOS/cmsis_os.c ****     ticks = 1;
 1999              		.loc 1 1120 0
 2000 0008 A242     		cmp	r2, r4
 2001 000a 08BF     		it	eq
ARM GAS  C:\Users\ALEX'S~1\AppData\Local\Temp\ccjCNn9l.s 			page 63


 2002 000c 0122     		moveq	r2, #1
 2003              	.LVL140:
1115:Middlewares/Third_Party/FreeRTOS/Source/CMSIS_RTOS/cmsis_os.c ****   TickType_t ticks;
 2004              		.loc 1 1115 0
 2005 000e 0394     		str	r4, [sp, #12]
 2006              	.LVL141:
 2007              	.LBB196:
 2008              	.LBB197:
 2009              	.LBB198:
 2010              		.loc 2 109 0
 2011              		.syntax unified
 2012              	@ 109 "Drivers/CMSIS/Include/cmsis_gcc.h" 1
 2013 0010 EFF30583 		MRS r3, ipsr
 2014              	@ 0 "" 2
 2015              		.thumb
 2016              		.syntax unified
 2017              	.LBE198:
 2018              	.LBE197:
 2019              	.LBE196:
1121:Middlewares/Third_Party/FreeRTOS/Source/CMSIS_RTOS/cmsis_os.c ****   }
1122:Middlewares/Third_Party/FreeRTOS/Source/CMSIS_RTOS/cmsis_os.c ****   
1123:Middlewares/Third_Party/FreeRTOS/Source/CMSIS_RTOS/cmsis_os.c ****   if (inHandlerMode()) {
 2020              		.loc 1 1123 0
 2021 0014 5BB1     		cbz	r3, .L182
1124:Middlewares/Third_Party/FreeRTOS/Source/CMSIS_RTOS/cmsis_os.c ****     if (xQueueSendFromISR(queue_id, &info, &taskWoken) != pdTRUE) {
 2022              		.loc 1 1124 0
 2023 0016 2346     		mov	r3, r4
 2024 0018 03AA     		add	r2, sp, #12
 2025              	.LVL142:
 2026 001a 01A9     		add	r1, sp, #4
 2027              	.LVL143:
 2028 001c FFF7FEFF 		bl	xQueueGenericSendFromISR
 2029              	.LVL144:
 2030 0020 0128     		cmp	r0, #1
 2031 0022 09D1     		bne	.L186
1125:Middlewares/Third_Party/FreeRTOS/Source/CMSIS_RTOS/cmsis_os.c ****       return osErrorOS;
1126:Middlewares/Third_Party/FreeRTOS/Source/CMSIS_RTOS/cmsis_os.c ****     }
1127:Middlewares/Third_Party/FreeRTOS/Source/CMSIS_RTOS/cmsis_os.c ****     portEND_SWITCHING_ISR(taskWoken);
 2032              		.loc 1 1127 0
 2033 0024 039B     		ldr	r3, [sp, #12]
 2034 0026 53B9     		cbnz	r3, .L191
 2035              	.L185:
1128:Middlewares/Third_Party/FreeRTOS/Source/CMSIS_RTOS/cmsis_os.c ****   }
1129:Middlewares/Third_Party/FreeRTOS/Source/CMSIS_RTOS/cmsis_os.c ****   else {
1130:Middlewares/Third_Party/FreeRTOS/Source/CMSIS_RTOS/cmsis_os.c ****     if (xQueueSend(queue_id, &info, ticks) != pdTRUE) {
1131:Middlewares/Third_Party/FreeRTOS/Source/CMSIS_RTOS/cmsis_os.c ****       return osErrorOS;
1132:Middlewares/Third_Party/FreeRTOS/Source/CMSIS_RTOS/cmsis_os.c ****     }
1133:Middlewares/Third_Party/FreeRTOS/Source/CMSIS_RTOS/cmsis_os.c ****   }
1134:Middlewares/Third_Party/FreeRTOS/Source/CMSIS_RTOS/cmsis_os.c ****   
1135:Middlewares/Third_Party/FreeRTOS/Source/CMSIS_RTOS/cmsis_os.c ****   return osOK;
 2036              		.loc 1 1135 0
 2037 0028 0020     		movs	r0, #0
1136:Middlewares/Third_Party/FreeRTOS/Source/CMSIS_RTOS/cmsis_os.c **** }
 2038              		.loc 1 1136 0
 2039 002a 04B0     		add	sp, sp, #16
 2040              	.LCFI60:
 2041              		.cfi_remember_state
ARM GAS  C:\Users\ALEX'S~1\AppData\Local\Temp\ccjCNn9l.s 			page 64


 2042              		.cfi_def_cfa_offset 8
 2043              		@ sp needed
 2044 002c 10BD     		pop	{r4, pc}
 2045              	.LVL145:
 2046              	.L182:
 2047              	.LCFI61:
 2048              		.cfi_restore_state
1130:Middlewares/Third_Party/FreeRTOS/Source/CMSIS_RTOS/cmsis_os.c ****       return osErrorOS;
 2049              		.loc 1 1130 0
 2050 002e 01A9     		add	r1, sp, #4
 2051              	.LVL146:
 2052 0030 FFF7FEFF 		bl	xQueueGenericSend
 2053              	.LVL147:
 2054 0034 0128     		cmp	r0, #1
 2055 0036 F7D0     		beq	.L185
 2056              	.L186:
1125:Middlewares/Third_Party/FreeRTOS/Source/CMSIS_RTOS/cmsis_os.c ****     }
 2057              		.loc 1 1125 0
 2058 0038 FF20     		movs	r0, #255
 2059              		.loc 1 1136 0
 2060 003a 04B0     		add	sp, sp, #16
 2061              	.LCFI62:
 2062              		.cfi_remember_state
 2063              		.cfi_def_cfa_offset 8
 2064              		@ sp needed
 2065 003c 10BD     		pop	{r4, pc}
 2066              	.LVL148:
 2067              	.L191:
 2068              	.LCFI63:
 2069              		.cfi_restore_state
1127:Middlewares/Third_Party/FreeRTOS/Source/CMSIS_RTOS/cmsis_os.c ****   }
 2070              		.loc 1 1127 0 discriminator 1
 2071 003e 054B     		ldr	r3, .L192
 2072 0040 4FF08052 		mov	r2, #268435456
 2073 0044 1A60     		str	r2, [r3]
 2074              		.syntax unified
 2075              	@ 1127 "Middlewares/Third_Party/FreeRTOS/Source/CMSIS_RTOS/cmsis_os.c" 1
 2076 0046 BFF34F8F 		dsb
 2077              	@ 0 "" 2
 2078              	@ 1127 "Middlewares/Third_Party/FreeRTOS/Source/CMSIS_RTOS/cmsis_os.c" 1
 2079 004a BFF36F8F 		isb
 2080              	@ 0 "" 2
1135:Middlewares/Third_Party/FreeRTOS/Source/CMSIS_RTOS/cmsis_os.c **** }
 2081              		.loc 1 1135 0 discriminator 1
 2082              		.thumb
 2083              		.syntax unified
 2084 004e 2046     		mov	r0, r4
 2085              		.loc 1 1136 0 discriminator 1
 2086 0050 04B0     		add	sp, sp, #16
 2087              	.LCFI64:
 2088              		.cfi_def_cfa_offset 8
 2089              		@ sp needed
 2090 0052 10BD     		pop	{r4, pc}
 2091              	.LVL149:
 2092              	.L193:
 2093              		.align	2
 2094              	.L192:
ARM GAS  C:\Users\ALEX'S~1\AppData\Local\Temp\ccjCNn9l.s 			page 65


 2095 0054 04ED00E0 		.word	-536810236
 2096              		.cfi_endproc
 2097              	.LFE62:
 2099              		.section	.text.osMessageGet,"ax",%progbits
 2100              		.align	1
 2101              		.p2align 2,,3
 2102              		.global	osMessageGet
 2103              		.syntax unified
 2104              		.thumb
 2105              		.thumb_func
 2106              		.fpu fpv4-sp-d16
 2108              	osMessageGet:
 2109              	.LFB63:
1137:Middlewares/Third_Party/FreeRTOS/Source/CMSIS_RTOS/cmsis_os.c **** 
1138:Middlewares/Third_Party/FreeRTOS/Source/CMSIS_RTOS/cmsis_os.c **** /**
1139:Middlewares/Third_Party/FreeRTOS/Source/CMSIS_RTOS/cmsis_os.c **** * @brief Get a Message or Wait for a Message from a Queue.
1140:Middlewares/Third_Party/FreeRTOS/Source/CMSIS_RTOS/cmsis_os.c **** * @param  queue_id  message queue ID obtained with \ref osMessageCreate.
1141:Middlewares/Third_Party/FreeRTOS/Source/CMSIS_RTOS/cmsis_os.c **** * @param  millisec  timeout value or 0 in case of no time-out.
1142:Middlewares/Third_Party/FreeRTOS/Source/CMSIS_RTOS/cmsis_os.c **** * @retval event information that includes status code.
1143:Middlewares/Third_Party/FreeRTOS/Source/CMSIS_RTOS/cmsis_os.c **** * @note   MUST REMAIN UNCHANGED: \b osMessageGet shall be consistent in every CMSIS-RTOS.
1144:Middlewares/Third_Party/FreeRTOS/Source/CMSIS_RTOS/cmsis_os.c **** */
1145:Middlewares/Third_Party/FreeRTOS/Source/CMSIS_RTOS/cmsis_os.c **** osEvent osMessageGet (osMessageQId queue_id, uint32_t millisec)
1146:Middlewares/Third_Party/FreeRTOS/Source/CMSIS_RTOS/cmsis_os.c **** {
 2110              		.loc 1 1146 0
 2111              		.cfi_startproc
 2112              		@ args = 0, pretend = 0, frame = 16
 2113              		@ frame_needed = 0, uses_anonymous_args = 0
 2114              	.LVL150:
 2115 0000 30B5     		push	{r4, r5, lr}
 2116              	.LCFI65:
 2117              		.cfi_def_cfa_offset 12
 2118              		.cfi_offset 4, -12
 2119              		.cfi_offset 5, -8
 2120              		.cfi_offset 14, -4
 2121 0002 85B0     		sub	sp, sp, #20
 2122              	.LCFI66:
 2123              		.cfi_def_cfa_offset 32
1147:Middlewares/Third_Party/FreeRTOS/Source/CMSIS_RTOS/cmsis_os.c ****   portBASE_TYPE taskWoken;
1148:Middlewares/Third_Party/FreeRTOS/Source/CMSIS_RTOS/cmsis_os.c ****   TickType_t ticks;
1149:Middlewares/Third_Party/FreeRTOS/Source/CMSIS_RTOS/cmsis_os.c ****   osEvent event;
1150:Middlewares/Third_Party/FreeRTOS/Source/CMSIS_RTOS/cmsis_os.c ****   
1151:Middlewares/Third_Party/FreeRTOS/Source/CMSIS_RTOS/cmsis_os.c ****   event.def.message_id = queue_id;
1152:Middlewares/Third_Party/FreeRTOS/Source/CMSIS_RTOS/cmsis_os.c ****   event.value.v = 0;
 2124              		.loc 1 1152 0
 2125 0004 0023     		movs	r3, #0
1151:Middlewares/Third_Party/FreeRTOS/Source/CMSIS_RTOS/cmsis_os.c ****   event.value.v = 0;
 2126              		.loc 1 1151 0
 2127 0006 0391     		str	r1, [sp, #12]
1146:Middlewares/Third_Party/FreeRTOS/Source/CMSIS_RTOS/cmsis_os.c ****   portBASE_TYPE taskWoken;
 2128              		.loc 1 1146 0
 2129 0008 0446     		mov	r4, r0
 2130              		.loc 1 1152 0
 2131 000a 0293     		str	r3, [sp, #8]
1153:Middlewares/Third_Party/FreeRTOS/Source/CMSIS_RTOS/cmsis_os.c ****   
1154:Middlewares/Third_Party/FreeRTOS/Source/CMSIS_RTOS/cmsis_os.c ****   if (queue_id == NULL) {
 2132              		.loc 1 1154 0
 2133 000c 69B3     		cbz	r1, .L208
ARM GAS  C:\Users\ALEX'S~1\AppData\Local\Temp\ccjCNn9l.s 			page 66


1155:Middlewares/Third_Party/FreeRTOS/Source/CMSIS_RTOS/cmsis_os.c ****     event.status = osErrorParameter;
1156:Middlewares/Third_Party/FreeRTOS/Source/CMSIS_RTOS/cmsis_os.c ****     return event;
1157:Middlewares/Third_Party/FreeRTOS/Source/CMSIS_RTOS/cmsis_os.c ****   }
1158:Middlewares/Third_Party/FreeRTOS/Source/CMSIS_RTOS/cmsis_os.c ****   
1159:Middlewares/Third_Party/FreeRTOS/Source/CMSIS_RTOS/cmsis_os.c ****   taskWoken = pdFALSE;
 2134              		.loc 1 1159 0
 2135 000e 0093     		str	r3, [sp]
 2136              	.LVL151:
 2137              	.LBB199:
 2138              	.LBB200:
 2139              	.LBB201:
 2140              		.loc 2 109 0
 2141              		.syntax unified
 2142              	@ 109 "Drivers/CMSIS/Include/cmsis_gcc.h" 1
 2143 0010 EFF30583 		MRS r3, ipsr
 2144              	@ 0 "" 2
 2145              		.thumb
 2146              		.syntax unified
 2147              	.LBE201:
 2148              	.LBE200:
 2149              	.LBE199:
1160:Middlewares/Third_Party/FreeRTOS/Source/CMSIS_RTOS/cmsis_os.c ****   
1161:Middlewares/Third_Party/FreeRTOS/Source/CMSIS_RTOS/cmsis_os.c ****   ticks = 0;
1162:Middlewares/Third_Party/FreeRTOS/Source/CMSIS_RTOS/cmsis_os.c ****   if (millisec == osWaitForever) {
1163:Middlewares/Third_Party/FreeRTOS/Source/CMSIS_RTOS/cmsis_os.c ****     ticks = portMAX_DELAY;
1164:Middlewares/Third_Party/FreeRTOS/Source/CMSIS_RTOS/cmsis_os.c ****   }
1165:Middlewares/Third_Party/FreeRTOS/Source/CMSIS_RTOS/cmsis_os.c ****   else if (millisec != 0) {
1166:Middlewares/Third_Party/FreeRTOS/Source/CMSIS_RTOS/cmsis_os.c ****     ticks = millisec / portTICK_PERIOD_MS;
1167:Middlewares/Third_Party/FreeRTOS/Source/CMSIS_RTOS/cmsis_os.c ****     if (ticks == 0) {
1168:Middlewares/Third_Party/FreeRTOS/Source/CMSIS_RTOS/cmsis_os.c ****       ticks = 1;
1169:Middlewares/Third_Party/FreeRTOS/Source/CMSIS_RTOS/cmsis_os.c ****     }
1170:Middlewares/Third_Party/FreeRTOS/Source/CMSIS_RTOS/cmsis_os.c ****   }
1171:Middlewares/Third_Party/FreeRTOS/Source/CMSIS_RTOS/cmsis_os.c ****   
1172:Middlewares/Third_Party/FreeRTOS/Source/CMSIS_RTOS/cmsis_os.c ****   if (inHandlerMode()) {
 2150              		.loc 1 1172 0
 2151 0014 9BB9     		cbnz	r3, .L209
1173:Middlewares/Third_Party/FreeRTOS/Source/CMSIS_RTOS/cmsis_os.c ****     if (xQueueReceiveFromISR(queue_id, &event.value.v, &taskWoken) == pdTRUE) {
1174:Middlewares/Third_Party/FreeRTOS/Source/CMSIS_RTOS/cmsis_os.c ****       /* We have mail */
1175:Middlewares/Third_Party/FreeRTOS/Source/CMSIS_RTOS/cmsis_os.c ****       event.status = osEventMessage;
1176:Middlewares/Third_Party/FreeRTOS/Source/CMSIS_RTOS/cmsis_os.c ****     }
1177:Middlewares/Third_Party/FreeRTOS/Source/CMSIS_RTOS/cmsis_os.c ****     else {
1178:Middlewares/Third_Party/FreeRTOS/Source/CMSIS_RTOS/cmsis_os.c ****       event.status = osOK;
1179:Middlewares/Third_Party/FreeRTOS/Source/CMSIS_RTOS/cmsis_os.c ****     }
1180:Middlewares/Third_Party/FreeRTOS/Source/CMSIS_RTOS/cmsis_os.c ****     portEND_SWITCHING_ISR(taskWoken);
1181:Middlewares/Third_Party/FreeRTOS/Source/CMSIS_RTOS/cmsis_os.c ****   }
1182:Middlewares/Third_Party/FreeRTOS/Source/CMSIS_RTOS/cmsis_os.c ****   else {
1183:Middlewares/Third_Party/FreeRTOS/Source/CMSIS_RTOS/cmsis_os.c ****     if (xQueueReceive(queue_id, &event.value.v, ticks) == pdTRUE) {
 2152              		.loc 1 1183 0
 2153 0016 0846     		mov	r0, r1
 2154              	.LVL152:
 2155 0018 02A9     		add	r1, sp, #8
 2156              	.LVL153:
 2157 001a 1546     		mov	r5, r2
 2158 001c FFF7FEFF 		bl	xQueueGenericReceive
 2159              	.LVL154:
 2160 0020 0128     		cmp	r0, #1
 2161 0022 2DD0     		beq	.L210
ARM GAS  C:\Users\ALEX'S~1\AppData\Local\Temp\ccjCNn9l.s 			page 67


1184:Middlewares/Third_Party/FreeRTOS/Source/CMSIS_RTOS/cmsis_os.c ****       /* We have mail */
1185:Middlewares/Third_Party/FreeRTOS/Source/CMSIS_RTOS/cmsis_os.c ****       event.status = osEventMessage;
1186:Middlewares/Third_Party/FreeRTOS/Source/CMSIS_RTOS/cmsis_os.c ****     }
1187:Middlewares/Third_Party/FreeRTOS/Source/CMSIS_RTOS/cmsis_os.c ****     else {
1188:Middlewares/Third_Party/FreeRTOS/Source/CMSIS_RTOS/cmsis_os.c ****       event.status = (ticks == 0) ? osOK : osEventTimeout;
 2162              		.loc 1 1188 0
 2163 0024 002D     		cmp	r5, #0
 2164 0026 0CBF     		ite	eq
 2165 0028 0023     		moveq	r3, #0
 2166 002a 4023     		movne	r3, #64
 2167 002c 0193     		str	r3, [sp, #4]
 2168              	.LVL155:
 2169              	.L199:
1189:Middlewares/Third_Party/FreeRTOS/Source/CMSIS_RTOS/cmsis_os.c ****     }
1190:Middlewares/Third_Party/FreeRTOS/Source/CMSIS_RTOS/cmsis_os.c ****   }
1191:Middlewares/Third_Party/FreeRTOS/Source/CMSIS_RTOS/cmsis_os.c ****   
1192:Middlewares/Third_Party/FreeRTOS/Source/CMSIS_RTOS/cmsis_os.c ****   return event;
 2170              		.loc 1 1192 0
 2171 002e 04AB     		add	r3, sp, #16
 2172 0030 13E90700 		ldmdb	r3, {r0, r1, r2}
 2173 0034 84E80700 		stm	r4, {r0, r1, r2}
1193:Middlewares/Third_Party/FreeRTOS/Source/CMSIS_RTOS/cmsis_os.c **** }
 2174              		.loc 1 1193 0
 2175 0038 2046     		mov	r0, r4
 2176 003a 05B0     		add	sp, sp, #20
 2177              	.LCFI67:
 2178              		.cfi_remember_state
 2179              		.cfi_def_cfa_offset 12
 2180              		@ sp needed
 2181 003c 30BD     		pop	{r4, r5, pc}
 2182              	.LVL156:
 2183              	.L209:
 2184              	.LCFI68:
 2185              		.cfi_restore_state
1173:Middlewares/Third_Party/FreeRTOS/Source/CMSIS_RTOS/cmsis_os.c ****       /* We have mail */
 2186              		.loc 1 1173 0
 2187 003e 6A46     		mov	r2, sp
 2188              	.LVL157:
 2189 0040 0846     		mov	r0, r1
 2190              	.LVL158:
 2191 0042 02A9     		add	r1, sp, #8
 2192              	.LVL159:
 2193 0044 FFF7FEFF 		bl	xQueueReceiveFromISR
 2194              	.LVL160:
1180:Middlewares/Third_Party/FreeRTOS/Source/CMSIS_RTOS/cmsis_os.c ****   }
 2195              		.loc 1 1180 0
 2196 0048 009B     		ldr	r3, [sp]
1178:Middlewares/Third_Party/FreeRTOS/Source/CMSIS_RTOS/cmsis_os.c ****     }
 2197              		.loc 1 1178 0
 2198 004a 0128     		cmp	r0, #1
 2199 004c 0CBF     		ite	eq
 2200 004e 1022     		moveq	r2, #16
 2201 0050 0022     		movne	r2, #0
 2202 0052 0192     		str	r2, [sp, #4]
1180:Middlewares/Third_Party/FreeRTOS/Source/CMSIS_RTOS/cmsis_os.c ****   }
 2203              		.loc 1 1180 0
 2204 0054 002B     		cmp	r3, #0
ARM GAS  C:\Users\ALEX'S~1\AppData\Local\Temp\ccjCNn9l.s 			page 68


 2205 0056 EAD0     		beq	.L199
1180:Middlewares/Third_Party/FreeRTOS/Source/CMSIS_RTOS/cmsis_os.c ****   }
 2206              		.loc 1 1180 0 is_stmt 0 discriminator 1
 2207 0058 0B4B     		ldr	r3, .L211
 2208 005a 4FF08052 		mov	r2, #268435456
 2209 005e 1A60     		str	r2, [r3]
 2210              		.syntax unified
 2211              	@ 1180 "Middlewares/Third_Party/FreeRTOS/Source/CMSIS_RTOS/cmsis_os.c" 1
 2212 0060 BFF34F8F 		dsb
 2213              	@ 0 "" 2
 2214              	@ 1180 "Middlewares/Third_Party/FreeRTOS/Source/CMSIS_RTOS/cmsis_os.c" 1
 2215 0064 BFF36F8F 		isb
 2216              	@ 0 "" 2
 2217              		.thumb
 2218              		.syntax unified
 2219 0068 E1E7     		b	.L199
 2220              	.LVL161:
 2221              	.L208:
1155:Middlewares/Third_Party/FreeRTOS/Source/CMSIS_RTOS/cmsis_os.c ****     return event;
 2222              		.loc 1 1155 0 is_stmt 1
 2223 006a 04AB     		add	r3, sp, #16
 2224 006c 8022     		movs	r2, #128
 2225              	.LVL162:
 2226 006e 43F80C2D 		str	r2, [r3, #-12]!
1156:Middlewares/Third_Party/FreeRTOS/Source/CMSIS_RTOS/cmsis_os.c ****   }
 2227              		.loc 1 1156 0
 2228 0072 93E80700 		ldm	r3, {r0, r1, r2}
 2229              	.LVL163:
 2230 0076 84E80700 		stm	r4, {r0, r1, r2}
 2231              		.loc 1 1193 0
 2232 007a 2046     		mov	r0, r4
 2233 007c 05B0     		add	sp, sp, #20
 2234              	.LCFI69:
 2235              		.cfi_remember_state
 2236              		.cfi_def_cfa_offset 12
 2237              		@ sp needed
 2238 007e 30BD     		pop	{r4, r5, pc}
 2239              	.LVL164:
 2240              	.L210:
 2241              	.LCFI70:
 2242              		.cfi_restore_state
1185:Middlewares/Third_Party/FreeRTOS/Source/CMSIS_RTOS/cmsis_os.c ****     }
 2243              		.loc 1 1185 0
 2244 0080 1023     		movs	r3, #16
 2245 0082 0193     		str	r3, [sp, #4]
 2246 0084 D3E7     		b	.L199
 2247              	.L212:
 2248 0086 00BF     		.align	2
 2249              	.L211:
 2250 0088 04ED00E0 		.word	-536810236
 2251              		.cfi_endproc
 2252              	.LFE63:
 2254              		.section	.text.osMailCreate,"ax",%progbits
 2255              		.align	1
 2256              		.p2align 2,,3
 2257              		.global	osMailCreate
 2258              		.syntax unified
ARM GAS  C:\Users\ALEX'S~1\AppData\Local\Temp\ccjCNn9l.s 			page 69


 2259              		.thumb
 2260              		.thumb_func
 2261              		.fpu fpv4-sp-d16
 2263              	osMailCreate:
 2264              	.LFB64:
1194:Middlewares/Third_Party/FreeRTOS/Source/CMSIS_RTOS/cmsis_os.c **** 
1195:Middlewares/Third_Party/FreeRTOS/Source/CMSIS_RTOS/cmsis_os.c **** #endif     /* Use Message Queues */
1196:Middlewares/Third_Party/FreeRTOS/Source/CMSIS_RTOS/cmsis_os.c **** 
1197:Middlewares/Third_Party/FreeRTOS/Source/CMSIS_RTOS/cmsis_os.c **** /********************   Mail Queue Management Functions  ***********************/
1198:Middlewares/Third_Party/FreeRTOS/Source/CMSIS_RTOS/cmsis_os.c **** #if (defined (osFeature_MailQ)  &&  (osFeature_MailQ != 0))  /* Use Mail Queues */
1199:Middlewares/Third_Party/FreeRTOS/Source/CMSIS_RTOS/cmsis_os.c **** 
1200:Middlewares/Third_Party/FreeRTOS/Source/CMSIS_RTOS/cmsis_os.c **** 
1201:Middlewares/Third_Party/FreeRTOS/Source/CMSIS_RTOS/cmsis_os.c **** typedef struct os_mailQ_cb {
1202:Middlewares/Third_Party/FreeRTOS/Source/CMSIS_RTOS/cmsis_os.c ****   const osMailQDef_t *queue_def;
1203:Middlewares/Third_Party/FreeRTOS/Source/CMSIS_RTOS/cmsis_os.c ****   QueueHandle_t handle;
1204:Middlewares/Third_Party/FreeRTOS/Source/CMSIS_RTOS/cmsis_os.c ****   osPoolId pool;
1205:Middlewares/Third_Party/FreeRTOS/Source/CMSIS_RTOS/cmsis_os.c **** } os_mailQ_cb_t;
1206:Middlewares/Third_Party/FreeRTOS/Source/CMSIS_RTOS/cmsis_os.c **** 
1207:Middlewares/Third_Party/FreeRTOS/Source/CMSIS_RTOS/cmsis_os.c **** /**
1208:Middlewares/Third_Party/FreeRTOS/Source/CMSIS_RTOS/cmsis_os.c **** * @brief Create and Initialize mail queue
1209:Middlewares/Third_Party/FreeRTOS/Source/CMSIS_RTOS/cmsis_os.c **** * @param  queue_def     reference to the mail queue definition obtain with \ref osMailQ
1210:Middlewares/Third_Party/FreeRTOS/Source/CMSIS_RTOS/cmsis_os.c **** * @param   thread_id     thread ID (obtained by \ref osThreadCreate or \ref osThreadGetId) or NULL.
1211:Middlewares/Third_Party/FreeRTOS/Source/CMSIS_RTOS/cmsis_os.c **** * @retval mail queue ID for reference by other functions or NULL in case of error.
1212:Middlewares/Third_Party/FreeRTOS/Source/CMSIS_RTOS/cmsis_os.c **** * @note   MUST REMAIN UNCHANGED: \b osMailCreate shall be consistent in every CMSIS-RTOS.
1213:Middlewares/Third_Party/FreeRTOS/Source/CMSIS_RTOS/cmsis_os.c **** */
1214:Middlewares/Third_Party/FreeRTOS/Source/CMSIS_RTOS/cmsis_os.c **** osMailQId osMailCreate (const osMailQDef_t *queue_def, osThreadId thread_id)
1215:Middlewares/Third_Party/FreeRTOS/Source/CMSIS_RTOS/cmsis_os.c **** {
 2265              		.loc 1 1215 0
 2266              		.cfi_startproc
 2267              		@ args = 0, pretend = 0, frame = 8
 2268              		@ frame_needed = 0, uses_anonymous_args = 0
 2269              	.LVL165:
 2270 0000 2DE9F043 		push	{r4, r5, r6, r7, r8, r9, lr}
 2271              	.LCFI71:
 2272              		.cfi_def_cfa_offset 28
 2273              		.cfi_offset 4, -28
 2274              		.cfi_offset 5, -24
 2275              		.cfi_offset 6, -20
 2276              		.cfi_offset 7, -16
 2277              		.cfi_offset 8, -12
 2278              		.cfi_offset 9, -8
 2279              		.cfi_offset 14, -4
 2280 0004 0546     		mov	r5, r0
 2281 0006 83B0     		sub	sp, sp, #12
 2282              	.LCFI72:
 2283              		.cfi_def_cfa_offset 40
1216:Middlewares/Third_Party/FreeRTOS/Source/CMSIS_RTOS/cmsis_os.c **** #if (configSUPPORT_DYNAMIC_ALLOCATION == 1)
1217:Middlewares/Third_Party/FreeRTOS/Source/CMSIS_RTOS/cmsis_os.c ****   (void) thread_id;
1218:Middlewares/Third_Party/FreeRTOS/Source/CMSIS_RTOS/cmsis_os.c ****   
1219:Middlewares/Third_Party/FreeRTOS/Source/CMSIS_RTOS/cmsis_os.c ****   osPoolDef_t pool_def = {queue_def->queue_sz, queue_def->item_sz, NULL};
1220:Middlewares/Third_Party/FreeRTOS/Source/CMSIS_RTOS/cmsis_os.c ****   
1221:Middlewares/Third_Party/FreeRTOS/Source/CMSIS_RTOS/cmsis_os.c ****   /* Create a mail queue control block */
1222:Middlewares/Third_Party/FreeRTOS/Source/CMSIS_RTOS/cmsis_os.c **** 
1223:Middlewares/Third_Party/FreeRTOS/Source/CMSIS_RTOS/cmsis_os.c ****   *(queue_def->cb) = pvPortMalloc(sizeof(struct os_mailQ_cb));
 2284              		.loc 1 1223 0
 2285 0008 0C20     		movs	r0, #12
 2286              	.LVL166:
ARM GAS  C:\Users\ALEX'S~1\AppData\Local\Temp\ccjCNn9l.s 			page 70


 2287 000a AC68     		ldr	r4, [r5, #8]
1219:Middlewares/Third_Party/FreeRTOS/Source/CMSIS_RTOS/cmsis_os.c ****   
 2288              		.loc 1 1219 0
 2289 000c D5E90079 		ldrd	r7, r9, [r5]
 2290              		.loc 1 1223 0
 2291 0010 FFF7FEFF 		bl	pvPortMalloc
 2292              	.LVL167:
1224:Middlewares/Third_Party/FreeRTOS/Source/CMSIS_RTOS/cmsis_os.c **** 
1225:Middlewares/Third_Party/FreeRTOS/Source/CMSIS_RTOS/cmsis_os.c ****   if (*(queue_def->cb) == NULL) {
 2293              		.loc 1 1225 0
 2294 0014 AB68     		ldr	r3, [r5, #8]
1223:Middlewares/Third_Party/FreeRTOS/Source/CMSIS_RTOS/cmsis_os.c **** 
 2295              		.loc 1 1223 0
 2296 0016 2060     		str	r0, [r4]
 2297              		.loc 1 1225 0
 2298 0018 1C68     		ldr	r4, [r3]
 2299 001a 002C     		cmp	r4, #0
 2300 001c 35D0     		beq	.L220
1226:Middlewares/Third_Party/FreeRTOS/Source/CMSIS_RTOS/cmsis_os.c ****     return NULL;
1227:Middlewares/Third_Party/FreeRTOS/Source/CMSIS_RTOS/cmsis_os.c ****   }
1228:Middlewares/Third_Party/FreeRTOS/Source/CMSIS_RTOS/cmsis_os.c ****   (*(queue_def->cb))->queue_def = queue_def;
 2301              		.loc 1 1228 0
 2302 001e 2560     		str	r5, [r4]
1229:Middlewares/Third_Party/FreeRTOS/Source/CMSIS_RTOS/cmsis_os.c ****   
1230:Middlewares/Third_Party/FreeRTOS/Source/CMSIS_RTOS/cmsis_os.c ****   /* Create a queue in FreeRTOS */
1231:Middlewares/Third_Party/FreeRTOS/Source/CMSIS_RTOS/cmsis_os.c ****   (*(queue_def->cb))->handle = xQueueCreate(queue_def->queue_sz, sizeof(void *));
 2303              		.loc 1 1231 0
 2304 0020 0022     		movs	r2, #0
 2305 0022 0421     		movs	r1, #4
 2306 0024 2868     		ldr	r0, [r5]
 2307 0026 FFF7FEFF 		bl	xQueueGenericCreate
 2308              	.LVL168:
1232:Middlewares/Third_Party/FreeRTOS/Source/CMSIS_RTOS/cmsis_os.c **** 
1233:Middlewares/Third_Party/FreeRTOS/Source/CMSIS_RTOS/cmsis_os.c **** 
1234:Middlewares/Third_Party/FreeRTOS/Source/CMSIS_RTOS/cmsis_os.c ****   if ((*(queue_def->cb))->handle == NULL) {
 2309              		.loc 1 1234 0
 2310 002a AB68     		ldr	r3, [r5, #8]
1231:Middlewares/Third_Party/FreeRTOS/Source/CMSIS_RTOS/cmsis_os.c **** 
 2311              		.loc 1 1231 0
 2312 002c 6060     		str	r0, [r4, #4]
 2313              		.loc 1 1234 0
 2314 002e D3F80080 		ldr	r8, [r3]
 2315 0032 D8F80440 		ldr	r4, [r8, #4]
 2316 0036 8CB3     		cbz	r4, .L229
 2317              	.LVL169:
 2318              	.LBB204:
 2319              	.LBB205:
 934:Middlewares/Third_Party/FreeRTOS/Source/CMSIS_RTOS/cmsis_os.c **** 
 2320              		.loc 1 934 0
 2321 0038 1420     		movs	r0, #20
 2322 003a FFF7FEFF 		bl	pvPortMalloc
 2323              	.LVL170:
 937:Middlewares/Third_Party/FreeRTOS/Source/CMSIS_RTOS/cmsis_os.c ****     thePool->pool_sz = pool_def->pool_sz;
 2324              		.loc 1 937 0
 2325 003e 0646     		mov	r6, r0
 2326 0040 D0B1     		cbz	r0, .L216
 930:Middlewares/Third_Party/FreeRTOS/Source/CMSIS_RTOS/cmsis_os.c ****   uint32_t i;
ARM GAS  C:\Users\ALEX'S~1\AppData\Local\Temp\ccjCNn9l.s 			page 71


 2327              		.loc 1 930 0
 2328 0042 09F10309 		add	r9, r9, #3
 2329              	.LVL171:
 2330 0046 29F00309 		bic	r9, r9, #3
 2331              	.LVL172:
 940:Middlewares/Third_Party/FreeRTOS/Source/CMSIS_RTOS/cmsis_os.c ****     
 2332              		.loc 1 940 0
 2333 004a 0024     		movs	r4, #0
 938:Middlewares/Third_Party/FreeRTOS/Source/CMSIS_RTOS/cmsis_os.c ****     thePool->item_sz = itemSize;
 2334              		.loc 1 938 0
 2335 004c C0E90279 		strd	r7, r9, [r0, #8]
 940:Middlewares/Third_Party/FreeRTOS/Source/CMSIS_RTOS/cmsis_os.c ****     
 2336              		.loc 1 940 0
 2337 0050 0461     		str	r4, [r0, #16]
 943:Middlewares/Third_Party/FreeRTOS/Source/CMSIS_RTOS/cmsis_os.c ****    
 2338              		.loc 1 943 0
 2339 0052 3846     		mov	r0, r7
 2340              	.LVL173:
 2341 0054 FFF7FEFF 		bl	pvPortMalloc
 2342              	.LVL174:
 2343 0058 7060     		str	r0, [r6, #4]
 945:Middlewares/Third_Party/FreeRTOS/Source/CMSIS_RTOS/cmsis_os.c ****       /* Now allocate the pool itself. */
 2344              		.loc 1 945 0
 2345 005a C0B1     		cbz	r0, .L217
 947:Middlewares/Third_Party/FreeRTOS/Source/CMSIS_RTOS/cmsis_os.c ****       
 2346              		.loc 1 947 0
 2347 005c 09FB07F0 		mul	r0, r9, r7
 2348 0060 FFF7FEFF 		bl	pvPortMalloc
 2349              	.LVL175:
 2350 0064 3060     		str	r0, [r6]
 949:Middlewares/Third_Party/FreeRTOS/Source/CMSIS_RTOS/cmsis_os.c ****         for (i = 0; i < pool_def->pool_sz; i++) {
 2351              		.loc 1 949 0
 2352 0066 10B3     		cbz	r0, .L218
 2353              	.LVL176:
 950:Middlewares/Third_Party/FreeRTOS/Source/CMSIS_RTOS/cmsis_os.c ****           thePool->markers[i] = 0;
 2354              		.loc 1 950 0
 2355 0068 37B1     		cbz	r7, .L216
 2356 006a 2346     		mov	r3, r4
 951:Middlewares/Third_Party/FreeRTOS/Source/CMSIS_RTOS/cmsis_os.c ****         }
 2357              		.loc 1 951 0
 2358 006c 2146     		mov	r1, r4
 2359              	.LVL177:
 2360              	.L219:
 2361 006e 7268     		ldr	r2, [r6, #4]
 2362 0070 D154     		strb	r1, [r2, r3]
 950:Middlewares/Third_Party/FreeRTOS/Source/CMSIS_RTOS/cmsis_os.c ****           thePool->markers[i] = 0;
 2363              		.loc 1 950 0
 2364 0072 0133     		adds	r3, r3, #1
 2365              	.LVL178:
 2366 0074 9F42     		cmp	r7, r3
 2367 0076 FAD1     		bne	.L219
 2368              	.LVL179:
 2369              	.L216:
 2370              	.LBE205:
 2371              	.LBE204:
1235:Middlewares/Third_Party/FreeRTOS/Source/CMSIS_RTOS/cmsis_os.c ****     vPortFree(*(queue_def->cb));
1236:Middlewares/Third_Party/FreeRTOS/Source/CMSIS_RTOS/cmsis_os.c ****     return NULL;
ARM GAS  C:\Users\ALEX'S~1\AppData\Local\Temp\ccjCNn9l.s 			page 72


1237:Middlewares/Third_Party/FreeRTOS/Source/CMSIS_RTOS/cmsis_os.c ****   }
1238:Middlewares/Third_Party/FreeRTOS/Source/CMSIS_RTOS/cmsis_os.c ****   
1239:Middlewares/Third_Party/FreeRTOS/Source/CMSIS_RTOS/cmsis_os.c ****   /* Create a mail pool */
1240:Middlewares/Third_Party/FreeRTOS/Source/CMSIS_RTOS/cmsis_os.c ****   (*(queue_def->cb))->pool = osPoolCreate(&pool_def);
1241:Middlewares/Third_Party/FreeRTOS/Source/CMSIS_RTOS/cmsis_os.c ****   if ((*(queue_def->cb))->pool == NULL) {
 2372              		.loc 1 1241 0
 2373 0078 AB68     		ldr	r3, [r5, #8]
1240:Middlewares/Third_Party/FreeRTOS/Source/CMSIS_RTOS/cmsis_os.c ****   if ((*(queue_def->cb))->pool == NULL) {
 2374              		.loc 1 1240 0
 2375 007a C8F80860 		str	r6, [r8, #8]
 2376              		.loc 1 1241 0
 2377 007e 1868     		ldr	r0, [r3]
 2378 0080 8468     		ldr	r4, [r0, #8]
 2379 0082 84B1     		cbz	r4, .L230
 2380              	.L213:
1242:Middlewares/Third_Party/FreeRTOS/Source/CMSIS_RTOS/cmsis_os.c ****     //TODO: Delete queue. How to do it in FreeRTOS?
1243:Middlewares/Third_Party/FreeRTOS/Source/CMSIS_RTOS/cmsis_os.c ****     vPortFree(*(queue_def->cb));
1244:Middlewares/Third_Party/FreeRTOS/Source/CMSIS_RTOS/cmsis_os.c ****     return NULL;
1245:Middlewares/Third_Party/FreeRTOS/Source/CMSIS_RTOS/cmsis_os.c ****   }
1246:Middlewares/Third_Party/FreeRTOS/Source/CMSIS_RTOS/cmsis_os.c ****   
1247:Middlewares/Third_Party/FreeRTOS/Source/CMSIS_RTOS/cmsis_os.c ****   return *(queue_def->cb);
1248:Middlewares/Third_Party/FreeRTOS/Source/CMSIS_RTOS/cmsis_os.c **** #else
1249:Middlewares/Third_Party/FreeRTOS/Source/CMSIS_RTOS/cmsis_os.c ****   return NULL;
1250:Middlewares/Third_Party/FreeRTOS/Source/CMSIS_RTOS/cmsis_os.c **** #endif
1251:Middlewares/Third_Party/FreeRTOS/Source/CMSIS_RTOS/cmsis_os.c **** }
 2381              		.loc 1 1251 0
 2382 0084 03B0     		add	sp, sp, #12
 2383              	.LCFI73:
 2384              		.cfi_remember_state
 2385              		.cfi_def_cfa_offset 28
 2386              		@ sp needed
 2387 0086 BDE8F083 		pop	{r4, r5, r6, r7, r8, r9, pc}
 2388              	.LVL180:
 2389              	.L220:
 2390              	.LCFI74:
 2391              		.cfi_restore_state
1226:Middlewares/Third_Party/FreeRTOS/Source/CMSIS_RTOS/cmsis_os.c ****   }
 2392              		.loc 1 1226 0
 2393 008a 2046     		mov	r0, r4
 2394 008c FAE7     		b	.L213
 2395              	.LVL181:
 2396              	.L217:
 2397 008e 0190     		str	r0, [sp, #4]
 2398              	.LBB208:
 2399              	.LBB206:
 961:Middlewares/Third_Party/FreeRTOS/Source/CMSIS_RTOS/cmsis_os.c ****       thePool = NULL;
 2400              		.loc 1 961 0
 2401 0090 3046     		mov	r0, r6
 2402 0092 FFF7FEFF 		bl	vPortFree
 2403              	.LVL182:
 962:Middlewares/Third_Party/FreeRTOS/Source/CMSIS_RTOS/cmsis_os.c ****     }
 2404              		.loc 1 962 0
 2405 0096 019B     		ldr	r3, [sp, #4]
 2406 0098 1E46     		mov	r6, r3
 2407 009a EDE7     		b	.L216
 2408              	.LVL183:
 2409              	.L229:
ARM GAS  C:\Users\ALEX'S~1\AppData\Local\Temp\ccjCNn9l.s 			page 73


 2410              	.LBE206:
 2411              	.LBE208:
1235:Middlewares/Third_Party/FreeRTOS/Source/CMSIS_RTOS/cmsis_os.c ****     return NULL;
 2412              		.loc 1 1235 0
 2413 009c 4046     		mov	r0, r8
 2414 009e FFF7FEFF 		bl	vPortFree
 2415              	.LVL184:
1236:Middlewares/Third_Party/FreeRTOS/Source/CMSIS_RTOS/cmsis_os.c ****   }
 2416              		.loc 1 1236 0
 2417 00a2 2046     		mov	r0, r4
 2418 00a4 EEE7     		b	.L213
 2419              	.L230:
1243:Middlewares/Third_Party/FreeRTOS/Source/CMSIS_RTOS/cmsis_os.c ****     return NULL;
 2420              		.loc 1 1243 0
 2421 00a6 FFF7FEFF 		bl	vPortFree
 2422              	.LVL185:
1244:Middlewares/Third_Party/FreeRTOS/Source/CMSIS_RTOS/cmsis_os.c ****   }
 2423              		.loc 1 1244 0
 2424 00aa 2046     		mov	r0, r4
 2425 00ac EAE7     		b	.L213
 2426              	.LVL186:
 2427              	.L218:
 2428 00ae 0190     		str	r0, [sp, #4]
 2429              	.LBB209:
 2430              	.LBB207:
 955:Middlewares/Third_Party/FreeRTOS/Source/CMSIS_RTOS/cmsis_os.c ****         vPortFree(thePool);
 2431              		.loc 1 955 0
 2432 00b0 7068     		ldr	r0, [r6, #4]
 2433 00b2 FFF7FEFF 		bl	vPortFree
 2434              	.LVL187:
 956:Middlewares/Third_Party/FreeRTOS/Source/CMSIS_RTOS/cmsis_os.c ****         thePool = NULL;
 2435              		.loc 1 956 0
 2436 00b6 3046     		mov	r0, r6
 2437 00b8 FFF7FEFF 		bl	vPortFree
 2438              	.LVL188:
 957:Middlewares/Third_Party/FreeRTOS/Source/CMSIS_RTOS/cmsis_os.c ****       }
 2439              		.loc 1 957 0
 2440 00bc 019B     		ldr	r3, [sp, #4]
 2441 00be 1E46     		mov	r6, r3
 2442 00c0 DAE7     		b	.L216
 2443              	.LBE207:
 2444              	.LBE209:
 2445              		.cfi_endproc
 2446              	.LFE64:
 2448 00c2 00BF     		.section	.text.osMailAlloc,"ax",%progbits
 2449              		.align	1
 2450              		.p2align 2,,3
 2451              		.global	osMailAlloc
 2452              		.syntax unified
 2453              		.thumb
 2454              		.thumb_func
 2455              		.fpu fpv4-sp-d16
 2457              	osMailAlloc:
 2458              	.LFB65:
1252:Middlewares/Third_Party/FreeRTOS/Source/CMSIS_RTOS/cmsis_os.c **** 
1253:Middlewares/Third_Party/FreeRTOS/Source/CMSIS_RTOS/cmsis_os.c **** /**
1254:Middlewares/Third_Party/FreeRTOS/Source/CMSIS_RTOS/cmsis_os.c **** * @brief Allocate a memory block from a mail
ARM GAS  C:\Users\ALEX'S~1\AppData\Local\Temp\ccjCNn9l.s 			page 74


1255:Middlewares/Third_Party/FreeRTOS/Source/CMSIS_RTOS/cmsis_os.c **** * @param  queue_id      mail queue ID obtained with \ref osMailCreate.
1256:Middlewares/Third_Party/FreeRTOS/Source/CMSIS_RTOS/cmsis_os.c **** * @param  millisec      timeout value or 0 in case of no time-out.
1257:Middlewares/Third_Party/FreeRTOS/Source/CMSIS_RTOS/cmsis_os.c **** * @retval pointer to memory block that can be filled with mail or NULL in case error.
1258:Middlewares/Third_Party/FreeRTOS/Source/CMSIS_RTOS/cmsis_os.c **** * @note   MUST REMAIN UNCHANGED: \b osMailAlloc shall be consistent in every CMSIS-RTOS.
1259:Middlewares/Third_Party/FreeRTOS/Source/CMSIS_RTOS/cmsis_os.c **** */
1260:Middlewares/Third_Party/FreeRTOS/Source/CMSIS_RTOS/cmsis_os.c **** void *osMailAlloc (osMailQId queue_id, uint32_t millisec)
1261:Middlewares/Third_Party/FreeRTOS/Source/CMSIS_RTOS/cmsis_os.c **** {
 2459              		.loc 1 1261 0
 2460              		.cfi_startproc
 2461              		@ args = 0, pretend = 0, frame = 0
 2462              		@ frame_needed = 0, uses_anonymous_args = 0
 2463              	.LVL189:
 2464 0000 2DE9F041 		push	{r4, r5, r6, r7, r8, lr}
 2465              	.LCFI75:
 2466              		.cfi_def_cfa_offset 24
 2467              		.cfi_offset 4, -24
 2468              		.cfi_offset 5, -20
 2469              		.cfi_offset 6, -16
 2470              		.cfi_offset 7, -12
 2471              		.cfi_offset 8, -8
 2472              		.cfi_offset 14, -4
1262:Middlewares/Third_Party/FreeRTOS/Source/CMSIS_RTOS/cmsis_os.c ****   (void) millisec;
1263:Middlewares/Third_Party/FreeRTOS/Source/CMSIS_RTOS/cmsis_os.c ****   void *p;
1264:Middlewares/Third_Party/FreeRTOS/Source/CMSIS_RTOS/cmsis_os.c ****   
1265:Middlewares/Third_Party/FreeRTOS/Source/CMSIS_RTOS/cmsis_os.c ****   
1266:Middlewares/Third_Party/FreeRTOS/Source/CMSIS_RTOS/cmsis_os.c ****   if (queue_id == NULL) {
 2473              		.loc 1 1266 0
 2474 0004 0028     		cmp	r0, #0
 2475 0006 45D0     		beq	.L240
1267:Middlewares/Third_Party/FreeRTOS/Source/CMSIS_RTOS/cmsis_os.c ****     return NULL;
1268:Middlewares/Third_Party/FreeRTOS/Source/CMSIS_RTOS/cmsis_os.c ****   }
1269:Middlewares/Third_Party/FreeRTOS/Source/CMSIS_RTOS/cmsis_os.c ****   
1270:Middlewares/Third_Party/FreeRTOS/Source/CMSIS_RTOS/cmsis_os.c ****   p = osPoolAlloc(queue_id->pool);
 2476              		.loc 1 1270 0
 2477 0008 D0F80880 		ldr	r8, [r0, #8]
 2478              	.LVL190:
 2479              	.LBB222:
 2480              	.LBB223:
 2481              	.LBB224:
 2482              	.LBB225:
 2483              	.LBB226:
 2484              		.loc 2 109 0
 2485              		.syntax unified
 2486              	@ 109 "Drivers/CMSIS/Include/cmsis_gcc.h" 1
 2487 000c EFF30587 		MRS r7, ipsr
 2488              	@ 0 "" 2
 2489              		.thumb
 2490              		.syntax unified
 2491              	.LBE226:
 2492              	.LBE225:
 2493              	.LBE224:
 986:Middlewares/Third_Party/FreeRTOS/Source/CMSIS_RTOS/cmsis_os.c ****     dummy = portSET_INTERRUPT_MASK_FROM_ISR();
 2494              		.loc 1 986 0
 2495 0010 002F     		cmp	r7, #0
 2496 0012 3CD0     		beq	.L233
 2497              	.LBB227:
 2498              	.LBB228:
ARM GAS  C:\Users\ALEX'S~1\AppData\Local\Temp\ccjCNn9l.s 			page 75


 253:Middlewares/Third_Party/FreeRTOS/Source/portable/GCC/ARM_CM4F/portmacro.h **** 	(
 2499              		.loc 3 253 0
 2500              		.syntax unified
 2501              	@ 253 "Middlewares/Third_Party/FreeRTOS/Source/portable/GCC/ARM_CM4F/portmacro.h" 1
 2502 0014 EFF31184 			mrs r4, basepri											
 2503 0018 4FF05003 		mov r3, #80												
 2504 001c 83F31188 		msr basepri, r3											
 2505 0020 BFF36F8F 		isb														
 2506 0024 BFF34F8F 		dsb														
 2507              	
 2508              	@ 0 "" 2
 2509              		.thumb
 2510              		.syntax unified
 2511              	.LBE228:
 2512              	.LBE227:
 987:Middlewares/Third_Party/FreeRTOS/Source/CMSIS_RTOS/cmsis_os.c ****   }
 2513              		.loc 1 987 0
 2514 0028 2746     		mov	r7, r4
 2515              	.LVL191:
 2516              	.L234:
 993:Middlewares/Third_Party/FreeRTOS/Source/CMSIS_RTOS/cmsis_os.c ****     index = pool_id->currentIndex + i;
 2517              		.loc 1 993 0
 2518 002a D8F80800 		ldr	r0, [r8, #8]
 2519 002e 98B3     		cbz	r0, .L241
 994:Middlewares/Third_Party/FreeRTOS/Source/CMSIS_RTOS/cmsis_os.c ****     if (index >= pool_id->pool_sz) {
 2520              		.loc 1 994 0
 2521 0030 D8F81030 		ldr	r3, [r8, #16]
 999:Middlewares/Third_Party/FreeRTOS/Source/CMSIS_RTOS/cmsis_os.c ****       pool_id->markers[index] = 1;
 2522              		.loc 1 999 0
 2523 0034 D8F80450 		ldr	r5, [r8, #4]
 2524 0038 1E18     		adds	r6, r3, r0
 2525 003a 01E0     		b	.L238
 2526              	.LVL192:
 2527              	.L237:
 993:Middlewares/Third_Party/FreeRTOS/Source/CMSIS_RTOS/cmsis_os.c ****     index = pool_id->currentIndex + i;
 2528              		.loc 1 993 0
 2529 003c 9E42     		cmp	r6, r3
 2530 003e 1CD0     		beq	.L245
 2531              	.LVL193:
 2532              	.L238:
 995:Middlewares/Third_Party/FreeRTOS/Source/CMSIS_RTOS/cmsis_os.c ****       index = 0;
 2533              		.loc 1 995 0
 2534 0040 8342     		cmp	r3, r0
 2535 0042 36BF     		itet	cc
 2536 0044 EA18     		addcc	r2, r5, r3
 2537 0046 2A46     		movcs	r2, r5
 2538 0048 1C46     		movcc	r4, r3
 999:Middlewares/Third_Party/FreeRTOS/Source/CMSIS_RTOS/cmsis_os.c ****       pool_id->markers[index] = 1;
 2539              		.loc 1 999 0
 2540 004a 1178     		ldrb	r1, [r2]	@ zero_extendqisi2
 996:Middlewares/Third_Party/FreeRTOS/Source/CMSIS_RTOS/cmsis_os.c ****     }
 2541              		.loc 1 996 0
 2542 004c 28BF     		it	cs
 2543 004e 0024     		movcs	r4, #0
 2544 0050 0133     		adds	r3, r3, #1
 999:Middlewares/Third_Party/FreeRTOS/Source/CMSIS_RTOS/cmsis_os.c ****       pool_id->markers[index] = 1;
 2545              		.loc 1 999 0
ARM GAS  C:\Users\ALEX'S~1\AppData\Local\Temp\ccjCNn9l.s 			page 76


 2546 0052 0029     		cmp	r1, #0
 2547 0054 F2D1     		bne	.L237
1000:Middlewares/Third_Party/FreeRTOS/Source/CMSIS_RTOS/cmsis_os.c ****       p = (void *)((uint32_t)(pool_id->pool) + (index * pool_id->item_sz));
 2548              		.loc 1 1000 0
 2549 0056 0123     		movs	r3, #1
 2550 0058 1370     		strb	r3, [r2]
1001:Middlewares/Third_Party/FreeRTOS/Source/CMSIS_RTOS/cmsis_os.c ****       pool_id->currentIndex = index;
 2551              		.loc 1 1001 0
 2552 005a D8F80C00 		ldr	r0, [r8, #12]
 2553 005e D8F80030 		ldr	r3, [r8]
1002:Middlewares/Third_Party/FreeRTOS/Source/CMSIS_RTOS/cmsis_os.c ****       break;
 2554              		.loc 1 1002 0
 2555 0062 C8F81040 		str	r4, [r8, #16]
1001:Middlewares/Third_Party/FreeRTOS/Source/CMSIS_RTOS/cmsis_os.c ****       pool_id->currentIndex = index;
 2556              		.loc 1 1001 0
 2557 0066 00FB0434 		mla	r4, r0, r4, r3
 2558              	.LVL194:
 2559              	.L235:
 2560              	.LBB229:
 2561              	.LBB230:
 2562              	.LBB231:
 2563              		.loc 2 109 0
 2564              		.syntax unified
 2565              	@ 109 "Drivers/CMSIS/Include/cmsis_gcc.h" 1
 2566 006a EFF30583 		MRS r3, ipsr
 2567              	@ 0 "" 2
 2568              		.thumb
 2569              		.syntax unified
 2570              	.LBE231:
 2571              	.LBE230:
 2572              	.LBE229:
1007:Middlewares/Third_Party/FreeRTOS/Source/CMSIS_RTOS/cmsis_os.c ****     portCLEAR_INTERRUPT_MASK_FROM_ISR(dummy);
 2573              		.loc 1 1007 0
 2574 006e 4BB1     		cbz	r3, .L239
 2575              	.L246:
 2576              	.LVL195:
 2577              	.LBB234:
 2578              	.LBB235:
 2579              		.loc 3 271 0
 2580              		.syntax unified
 2581              	@ 271 "Middlewares/Third_Party/FreeRTOS/Source/portable/GCC/ARM_CM4F/portmacro.h" 1
 2582 0070 87F31188 			msr basepri, r7	
 2583              	@ 0 "" 2
 2584              	.LVL196:
 2585              		.thumb
 2586              		.syntax unified
 2587              	.L231:
 2588              	.LBE235:
 2589              	.LBE234:
 2590              	.LBE223:
 2591              	.LBE222:
1271:Middlewares/Third_Party/FreeRTOS/Source/CMSIS_RTOS/cmsis_os.c ****   
1272:Middlewares/Third_Party/FreeRTOS/Source/CMSIS_RTOS/cmsis_os.c ****   return p;
1273:Middlewares/Third_Party/FreeRTOS/Source/CMSIS_RTOS/cmsis_os.c **** }
 2592              		.loc 1 1273 0
 2593 0074 2046     		mov	r0, r4
 2594 0076 BDE8F081 		pop	{r4, r5, r6, r7, r8, pc}
ARM GAS  C:\Users\ALEX'S~1\AppData\Local\Temp\ccjCNn9l.s 			page 77


 2595              	.LVL197:
 2596              	.L245:
 2597              	.LBB240:
 2598              	.LBB237:
 982:Middlewares/Third_Party/FreeRTOS/Source/CMSIS_RTOS/cmsis_os.c ****   uint32_t i;
 2599              		.loc 1 982 0
 2600 007a 0024     		movs	r4, #0
 2601              	.LVL198:
 2602              	.LBB236:
 2603              	.LBB233:
 2604              	.LBB232:
 2605              		.loc 2 109 0
 2606              		.syntax unified
 2607              	@ 109 "Drivers/CMSIS/Include/cmsis_gcc.h" 1
 2608 007c EFF30583 		MRS r3, ipsr
 2609              	@ 0 "" 2
 2610              		.thumb
 2611              		.syntax unified
 2612              	.LBE232:
 2613              	.LBE233:
 2614              	.LBE236:
1007:Middlewares/Third_Party/FreeRTOS/Source/CMSIS_RTOS/cmsis_os.c ****     portCLEAR_INTERRUPT_MASK_FROM_ISR(dummy);
 2615              		.loc 1 1007 0
 2616 0080 002B     		cmp	r3, #0
 2617 0082 F5D1     		bne	.L246
 2618              	.LVL199:
 2619              	.L239:
1011:Middlewares/Third_Party/FreeRTOS/Source/CMSIS_RTOS/cmsis_os.c ****   }
 2620              		.loc 1 1011 0
 2621 0084 FFF7FEFF 		bl	vPortExitCritical
 2622              	.LVL200:
 2623              	.LBE237:
 2624              	.LBE240:
 2625              		.loc 1 1273 0
 2626 0088 2046     		mov	r0, r4
 2627 008a BDE8F081 		pop	{r4, r5, r6, r7, r8, pc}
 2628              	.LVL201:
 2629              	.L233:
 2630              	.LBB241:
 2631              	.LBB238:
 990:Middlewares/Third_Party/FreeRTOS/Source/CMSIS_RTOS/cmsis_os.c ****   }
 2632              		.loc 1 990 0
 2633 008e FFF7FEFF 		bl	vPortEnterCritical
 2634              	.LVL202:
 2635 0092 CAE7     		b	.L234
 2636              	.LVL203:
 2637              	.L240:
 2638              	.LBE238:
 2639              	.LBE241:
1267:Middlewares/Third_Party/FreeRTOS/Source/CMSIS_RTOS/cmsis_os.c ****   }
 2640              		.loc 1 1267 0
 2641 0094 0446     		mov	r4, r0
 2642 0096 EDE7     		b	.L231
 2643              	.LVL204:
 2644              	.L241:
 2645              	.LBB242:
 2646              	.LBB239:
ARM GAS  C:\Users\ALEX'S~1\AppData\Local\Temp\ccjCNn9l.s 			page 78


 982:Middlewares/Third_Party/FreeRTOS/Source/CMSIS_RTOS/cmsis_os.c ****   uint32_t i;
 2647              		.loc 1 982 0
 2648 0098 0446     		mov	r4, r0
 2649 009a E6E7     		b	.L235
 2650              	.LBE239:
 2651              	.LBE242:
 2652              		.cfi_endproc
 2653              	.LFE65:
 2655              		.section	.text.osMailCAlloc,"ax",%progbits
 2656              		.align	1
 2657              		.p2align 2,,3
 2658              		.global	osMailCAlloc
 2659              		.syntax unified
 2660              		.thumb
 2661              		.thumb_func
 2662              		.fpu fpv4-sp-d16
 2664              	osMailCAlloc:
 2665              	.LFB66:
1274:Middlewares/Third_Party/FreeRTOS/Source/CMSIS_RTOS/cmsis_os.c **** 
1275:Middlewares/Third_Party/FreeRTOS/Source/CMSIS_RTOS/cmsis_os.c **** /**
1276:Middlewares/Third_Party/FreeRTOS/Source/CMSIS_RTOS/cmsis_os.c **** * @brief Allocate a memory block from a mail and set memory block to zero
1277:Middlewares/Third_Party/FreeRTOS/Source/CMSIS_RTOS/cmsis_os.c **** * @param  queue_id      mail queue ID obtained with \ref osMailCreate.
1278:Middlewares/Third_Party/FreeRTOS/Source/CMSIS_RTOS/cmsis_os.c **** * @param  millisec      timeout value or 0 in case of no time-out.
1279:Middlewares/Third_Party/FreeRTOS/Source/CMSIS_RTOS/cmsis_os.c **** * @retval pointer to memory block that can be filled with mail or NULL in case error.
1280:Middlewares/Third_Party/FreeRTOS/Source/CMSIS_RTOS/cmsis_os.c **** * @note   MUST REMAIN UNCHANGED: \b osMailCAlloc shall be consistent in every CMSIS-RTOS.
1281:Middlewares/Third_Party/FreeRTOS/Source/CMSIS_RTOS/cmsis_os.c **** */
1282:Middlewares/Third_Party/FreeRTOS/Source/CMSIS_RTOS/cmsis_os.c **** void *osMailCAlloc (osMailQId queue_id, uint32_t millisec)
1283:Middlewares/Third_Party/FreeRTOS/Source/CMSIS_RTOS/cmsis_os.c **** {
 2666              		.loc 1 1283 0
 2667              		.cfi_startproc
 2668              		@ args = 0, pretend = 0, frame = 0
 2669              		@ frame_needed = 0, uses_anonymous_args = 0
 2670              	.LVL205:
 2671 0000 2DE9F041 		push	{r4, r5, r6, r7, r8, lr}
 2672              	.LCFI76:
 2673              		.cfi_def_cfa_offset 24
 2674              		.cfi_offset 4, -24
 2675              		.cfi_offset 5, -20
 2676              		.cfi_offset 6, -16
 2677              		.cfi_offset 7, -12
 2678              		.cfi_offset 8, -8
 2679              		.cfi_offset 14, -4
 2680              	.LBB257:
 2681              	.LBB258:
1266:Middlewares/Third_Party/FreeRTOS/Source/CMSIS_RTOS/cmsis_os.c ****     return NULL;
 2682              		.loc 1 1266 0
 2683 0004 0028     		cmp	r0, #0
 2684 0006 50D0     		beq	.L248
 2685 0008 0646     		mov	r6, r0
1270:Middlewares/Third_Party/FreeRTOS/Source/CMSIS_RTOS/cmsis_os.c ****   
 2686              		.loc 1 1270 0
 2687 000a D0F80880 		ldr	r8, [r0, #8]
 2688              	.LVL206:
 2689              	.LBB259:
 2690              	.LBB260:
 2691              	.LBB261:
 2692              	.LBB262:
ARM GAS  C:\Users\ALEX'S~1\AppData\Local\Temp\ccjCNn9l.s 			page 79


 2693              	.LBB263:
 2694              		.loc 2 109 0
 2695              		.syntax unified
 2696              	@ 109 "Drivers/CMSIS/Include/cmsis_gcc.h" 1
 2697 000e EFF30584 		MRS r4, ipsr
 2698              	@ 0 "" 2
 2699              		.thumb
 2700              		.syntax unified
 2701              	.LBE263:
 2702              	.LBE262:
 2703              	.LBE261:
 986:Middlewares/Third_Party/FreeRTOS/Source/CMSIS_RTOS/cmsis_os.c ****     dummy = portSET_INTERRUPT_MASK_FROM_ISR();
 2704              		.loc 1 986 0
 2705 0012 002C     		cmp	r4, #0
 2706 0014 4DD0     		beq	.L249
 2707              	.LBB264:
 2708              	.LBB265:
 253:Middlewares/Third_Party/FreeRTOS/Source/portable/GCC/ARM_CM4F/portmacro.h **** 	(
 2709              		.loc 3 253 0
 2710              		.syntax unified
 2711              	@ 253 "Middlewares/Third_Party/FreeRTOS/Source/portable/GCC/ARM_CM4F/portmacro.h" 1
 2712 0016 EFF31184 			mrs r4, basepri											
 2713 001a 4FF05003 		mov r3, #80												
 2714 001e 83F31188 		msr basepri, r3											
 2715 0022 BFF36F8F 		isb														
 2716 0026 BFF34F8F 		dsb														
 2717              	
 2718              	@ 0 "" 2
 2719              		.thumb
 2720              		.syntax unified
 2721              	.LBE265:
 2722              	.LBE264:
 987:Middlewares/Third_Party/FreeRTOS/Source/CMSIS_RTOS/cmsis_os.c ****   }
 2723              		.loc 1 987 0
 2724 002a A446     		mov	ip, r4
 2725              	.LVL207:
 2726              	.L250:
 993:Middlewares/Third_Party/FreeRTOS/Source/CMSIS_RTOS/cmsis_os.c ****     index = pool_id->currentIndex + i;
 2727              		.loc 1 993 0
 2728 002c D8F80820 		ldr	r2, [r8, #8]
 2729 0030 002A     		cmp	r2, #0
 2730 0032 42D0     		beq	.L259
 994:Middlewares/Third_Party/FreeRTOS/Source/CMSIS_RTOS/cmsis_os.c ****     if (index >= pool_id->pool_sz) {
 2731              		.loc 1 994 0
 2732 0034 D8F81030 		ldr	r3, [r8, #16]
 999:Middlewares/Third_Party/FreeRTOS/Source/CMSIS_RTOS/cmsis_os.c ****       pool_id->markers[index] = 1;
 2733              		.loc 1 999 0
 2734 0038 D8F80400 		ldr	r0, [r8, #4]
 2735 003c D718     		adds	r7, r2, r3
 2736 003e 01E0     		b	.L254
 2737              	.LVL208:
 2738              	.L253:
 993:Middlewares/Third_Party/FreeRTOS/Source/CMSIS_RTOS/cmsis_os.c ****     index = pool_id->currentIndex + i;
 2739              		.loc 1 993 0
 2740 0040 9F42     		cmp	r7, r3
 2741 0042 29D0     		beq	.L273
 2742              	.LVL209:
ARM GAS  C:\Users\ALEX'S~1\AppData\Local\Temp\ccjCNn9l.s 			page 80


 2743              	.L254:
 995:Middlewares/Third_Party/FreeRTOS/Source/CMSIS_RTOS/cmsis_os.c ****       index = 0;
 2744              		.loc 1 995 0
 2745 0044 9342     		cmp	r3, r2
 2746 0046 36BF     		itet	cc
 2747 0048 C118     		addcc	r1, r0, r3
 2748 004a 0146     		movcs	r1, r0
 2749 004c 1C46     		movcc	r4, r3
 999:Middlewares/Third_Party/FreeRTOS/Source/CMSIS_RTOS/cmsis_os.c ****       pool_id->markers[index] = 1;
 2750              		.loc 1 999 0
 2751 004e 0D78     		ldrb	r5, [r1]	@ zero_extendqisi2
 996:Middlewares/Third_Party/FreeRTOS/Source/CMSIS_RTOS/cmsis_os.c ****     }
 2752              		.loc 1 996 0
 2753 0050 28BF     		it	cs
 2754 0052 0024     		movcs	r4, #0
 2755 0054 0133     		adds	r3, r3, #1
 999:Middlewares/Third_Party/FreeRTOS/Source/CMSIS_RTOS/cmsis_os.c ****       pool_id->markers[index] = 1;
 2756              		.loc 1 999 0
 2757 0056 002D     		cmp	r5, #0
 2758 0058 F2D1     		bne	.L253
1000:Middlewares/Third_Party/FreeRTOS/Source/CMSIS_RTOS/cmsis_os.c ****       p = (void *)((uint32_t)(pool_id->pool) + (index * pool_id->item_sz));
 2759              		.loc 1 1000 0
 2760 005a 0123     		movs	r3, #1
 2761 005c 0B70     		strb	r3, [r1]
1001:Middlewares/Third_Party/FreeRTOS/Source/CMSIS_RTOS/cmsis_os.c ****       pool_id->currentIndex = index;
 2762              		.loc 1 1001 0
 2763 005e D8F80C20 		ldr	r2, [r8, #12]
 2764 0062 D8F80000 		ldr	r0, [r8]
1002:Middlewares/Third_Party/FreeRTOS/Source/CMSIS_RTOS/cmsis_os.c ****       break;
 2765              		.loc 1 1002 0
 2766 0066 C8F81040 		str	r4, [r8, #16]
1001:Middlewares/Third_Party/FreeRTOS/Source/CMSIS_RTOS/cmsis_os.c ****       pool_id->currentIndex = index;
 2767              		.loc 1 1001 0
 2768 006a 02FB0404 		mla	r4, r2, r4, r0
 2769              	.LVL210:
 2770              	.L251:
 2771              	.LBB266:
 2772              	.LBB267:
 2773              	.LBB268:
 2774              		.loc 2 109 0
 2775              		.syntax unified
 2776              	@ 109 "Drivers/CMSIS/Include/cmsis_gcc.h" 1
 2777 006e EFF30583 		MRS r3, ipsr
 2778              	@ 0 "" 2
 2779              		.thumb
 2780              		.syntax unified
 2781              	.LBE268:
 2782              	.LBE267:
 2783              	.LBE266:
1007:Middlewares/Third_Party/FreeRTOS/Source/CMSIS_RTOS/cmsis_os.c ****     portCLEAR_INTERRUPT_MASK_FROM_ISR(dummy);
 2784              		.loc 1 1007 0
 2785 0072 B3B1     		cbz	r3, .L255
 2786              	.L274:
 2787              	.LVL211:
 2788              	.LBB271:
 2789              	.LBB272:
 2790              		.loc 3 271 0
ARM GAS  C:\Users\ALEX'S~1\AppData\Local\Temp\ccjCNn9l.s 			page 81


 2791              		.syntax unified
 2792              	@ 271 "Middlewares/Third_Party/FreeRTOS/Source/portable/GCC/ARM_CM4F/portmacro.h" 1
 2793 0074 8CF31188 			msr basepri, ip	
 2794              	@ 0 "" 2
 2795              	.LVL212:
 2796              		.thumb
 2797              		.syntax unified
 2798              	.LBE272:
 2799              	.LBE271:
 2800              	.LBE260:
 2801              	.LBE259:
 2802              	.LBE258:
 2803              	.LBE257:
1284:Middlewares/Third_Party/FreeRTOS/Source/CMSIS_RTOS/cmsis_os.c ****   uint32_t i;
1285:Middlewares/Third_Party/FreeRTOS/Source/CMSIS_RTOS/cmsis_os.c ****   void *p = osMailAlloc(queue_id, millisec);
1286:Middlewares/Third_Party/FreeRTOS/Source/CMSIS_RTOS/cmsis_os.c ****   
1287:Middlewares/Third_Party/FreeRTOS/Source/CMSIS_RTOS/cmsis_os.c ****   if (p) {
 2804              		.loc 1 1287 0
 2805 0078 BCB1     		cbz	r4, .L248
 2806              	.LVL213:
 2807              	.L275:
1288:Middlewares/Third_Party/FreeRTOS/Source/CMSIS_RTOS/cmsis_os.c ****     for (i = 0; i < queue_id->queue_def->item_sz; i++) {
 2808              		.loc 1 1288 0
 2809 007a 3368     		ldr	r3, [r6]
 2810 007c 5B68     		ldr	r3, [r3, #4]
 2811 007e 43B1     		cbz	r3, .L247
 2812 0080 2346     		mov	r3, r4
1289:Middlewares/Third_Party/FreeRTOS/Source/CMSIS_RTOS/cmsis_os.c ****       ((uint8_t *)p)[i] = 0;
 2813              		.loc 1 1289 0
 2814 0082 0020     		movs	r0, #0
 2815              	.LVL214:
 2816              	.L258:
 2817              		.loc 1 1289 0 is_stmt 0 discriminator 3
 2818 0084 03F8010B 		strb	r0, [r3], #1
 2819              	.LVL215:
1288:Middlewares/Third_Party/FreeRTOS/Source/CMSIS_RTOS/cmsis_os.c ****     for (i = 0; i < queue_id->queue_def->item_sz; i++) {
 2820              		.loc 1 1288 0 is_stmt 1 discriminator 3
 2821 0088 3268     		ldr	r2, [r6]
 2822 008a 5168     		ldr	r1, [r2, #4]
 2823 008c 1A1B     		subs	r2, r3, r4
 2824              	.LVL216:
 2825 008e 9142     		cmp	r1, r2
 2826 0090 F8D8     		bhi	.L258
 2827              	.LVL217:
 2828              	.L247:
1290:Middlewares/Third_Party/FreeRTOS/Source/CMSIS_RTOS/cmsis_os.c ****     }
1291:Middlewares/Third_Party/FreeRTOS/Source/CMSIS_RTOS/cmsis_os.c ****   }
1292:Middlewares/Third_Party/FreeRTOS/Source/CMSIS_RTOS/cmsis_os.c ****   
1293:Middlewares/Third_Party/FreeRTOS/Source/CMSIS_RTOS/cmsis_os.c ****   return p;
1294:Middlewares/Third_Party/FreeRTOS/Source/CMSIS_RTOS/cmsis_os.c **** }
 2829              		.loc 1 1294 0
 2830 0092 2046     		mov	r0, r4
 2831 0094 BDE8F081 		pop	{r4, r5, r6, r7, r8, pc}
 2832              	.LVL218:
 2833              	.L273:
 2834              	.LBB281:
 2835              	.LBB278:
ARM GAS  C:\Users\ALEX'S~1\AppData\Local\Temp\ccjCNn9l.s 			page 82


 2836              	.LBB276:
 2837              	.LBB274:
 982:Middlewares/Third_Party/FreeRTOS/Source/CMSIS_RTOS/cmsis_os.c ****   uint32_t i;
 2838              		.loc 1 982 0
 2839 0098 0024     		movs	r4, #0
 2840              	.LVL219:
 2841              	.LBB273:
 2842              	.LBB270:
 2843              	.LBB269:
 2844              		.loc 2 109 0
 2845              		.syntax unified
 2846              	@ 109 "Drivers/CMSIS/Include/cmsis_gcc.h" 1
 2847 009a EFF30583 		MRS r3, ipsr
 2848              	@ 0 "" 2
 2849              		.thumb
 2850              		.syntax unified
 2851              	.LBE269:
 2852              	.LBE270:
 2853              	.LBE273:
1007:Middlewares/Third_Party/FreeRTOS/Source/CMSIS_RTOS/cmsis_os.c ****     portCLEAR_INTERRUPT_MASK_FROM_ISR(dummy);
 2854              		.loc 1 1007 0
 2855 009e 002B     		cmp	r3, #0
 2856 00a0 E8D1     		bne	.L274
 2857              	.LVL220:
 2858              	.L255:
1011:Middlewares/Third_Party/FreeRTOS/Source/CMSIS_RTOS/cmsis_os.c ****   }
 2859              		.loc 1 1011 0
 2860 00a2 FFF7FEFF 		bl	vPortExitCritical
 2861              	.LVL221:
 2862              	.LBE274:
 2863              	.LBE276:
 2864              	.LBE278:
 2865              	.LBE281:
1287:Middlewares/Third_Party/FreeRTOS/Source/CMSIS_RTOS/cmsis_os.c ****     for (i = 0; i < queue_id->queue_def->item_sz; i++) {
 2866              		.loc 1 1287 0
 2867 00a6 002C     		cmp	r4, #0
 2868 00a8 E7D1     		bne	.L275
 2869              	.LVL222:
 2870              	.L248:
 2871              	.LBB282:
 2872              	.LBB279:
1267:Middlewares/Third_Party/FreeRTOS/Source/CMSIS_RTOS/cmsis_os.c ****   }
 2873              		.loc 1 1267 0
 2874 00aa 0024     		movs	r4, #0
 2875              	.LBE279:
 2876              	.LBE282:
 2877              		.loc 1 1294 0
 2878 00ac 2046     		mov	r0, r4
 2879 00ae BDE8F081 		pop	{r4, r5, r6, r7, r8, pc}
 2880              	.LVL223:
 2881              	.L249:
 2882              	.LBB283:
 2883              	.LBB280:
 2884              	.LBB277:
 2885              	.LBB275:
 990:Middlewares/Third_Party/FreeRTOS/Source/CMSIS_RTOS/cmsis_os.c ****   }
 2886              		.loc 1 990 0
ARM GAS  C:\Users\ALEX'S~1\AppData\Local\Temp\ccjCNn9l.s 			page 83


 2887 00b2 FFF7FEFF 		bl	vPortEnterCritical
 2888              	.LVL224:
 981:Middlewares/Third_Party/FreeRTOS/Source/CMSIS_RTOS/cmsis_os.c ****   void *p = NULL;
 2889              		.loc 1 981 0
 2890 00b6 A446     		mov	ip, r4
 2891 00b8 B8E7     		b	.L250
 2892              	.LVL225:
 2893              	.L259:
 982:Middlewares/Third_Party/FreeRTOS/Source/CMSIS_RTOS/cmsis_os.c ****   uint32_t i;
 2894              		.loc 1 982 0
 2895 00ba 1446     		mov	r4, r2
 2896 00bc D7E7     		b	.L251
 2897              	.LBE275:
 2898              	.LBE277:
 2899              	.LBE280:
 2900              	.LBE283:
 2901              		.cfi_endproc
 2902              	.LFE66:
 2904 00be 00BF     		.section	.text.osMailPut,"ax",%progbits
 2905              		.align	1
 2906              		.p2align 2,,3
 2907              		.global	osMailPut
 2908              		.syntax unified
 2909              		.thumb
 2910              		.thumb_func
 2911              		.fpu fpv4-sp-d16
 2913              	osMailPut:
 2914              	.LFB67:
1295:Middlewares/Third_Party/FreeRTOS/Source/CMSIS_RTOS/cmsis_os.c **** 
1296:Middlewares/Third_Party/FreeRTOS/Source/CMSIS_RTOS/cmsis_os.c **** /**
1297:Middlewares/Third_Party/FreeRTOS/Source/CMSIS_RTOS/cmsis_os.c **** * @brief Put a mail to a queue
1298:Middlewares/Third_Party/FreeRTOS/Source/CMSIS_RTOS/cmsis_os.c **** * @param  queue_id      mail queue ID obtained with \ref osMailCreate.
1299:Middlewares/Third_Party/FreeRTOS/Source/CMSIS_RTOS/cmsis_os.c **** * @param  mail          memory block previously allocated with \ref osMailAlloc or \ref osMailCAllo
1300:Middlewares/Third_Party/FreeRTOS/Source/CMSIS_RTOS/cmsis_os.c **** * @retval status code that indicates the execution status of the function.
1301:Middlewares/Third_Party/FreeRTOS/Source/CMSIS_RTOS/cmsis_os.c **** * @note   MUST REMAIN UNCHANGED: \b osMailPut shall be consistent in every CMSIS-RTOS.
1302:Middlewares/Third_Party/FreeRTOS/Source/CMSIS_RTOS/cmsis_os.c **** */
1303:Middlewares/Third_Party/FreeRTOS/Source/CMSIS_RTOS/cmsis_os.c **** osStatus osMailPut (osMailQId queue_id, void *mail)
1304:Middlewares/Third_Party/FreeRTOS/Source/CMSIS_RTOS/cmsis_os.c **** {
 2915              		.loc 1 1304 0
 2916              		.cfi_startproc
 2917              		@ args = 0, pretend = 0, frame = 16
 2918              		@ frame_needed = 0, uses_anonymous_args = 0
 2919              	.LVL226:
 2920 0000 10B5     		push	{r4, lr}
 2921              	.LCFI77:
 2922              		.cfi_def_cfa_offset 8
 2923              		.cfi_offset 4, -8
 2924              		.cfi_offset 14, -4
 2925 0002 84B0     		sub	sp, sp, #16
 2926              	.LCFI78:
 2927              		.cfi_def_cfa_offset 24
 2928              		.loc 1 1304 0
 2929 0004 0191     		str	r1, [sp, #4]
1305:Middlewares/Third_Party/FreeRTOS/Source/CMSIS_RTOS/cmsis_os.c ****   portBASE_TYPE taskWoken;
1306:Middlewares/Third_Party/FreeRTOS/Source/CMSIS_RTOS/cmsis_os.c ****   
1307:Middlewares/Third_Party/FreeRTOS/Source/CMSIS_RTOS/cmsis_os.c ****   
1308:Middlewares/Third_Party/FreeRTOS/Source/CMSIS_RTOS/cmsis_os.c ****   if (queue_id == NULL) {
ARM GAS  C:\Users\ALEX'S~1\AppData\Local\Temp\ccjCNn9l.s 			page 84


 2930              		.loc 1 1308 0
 2931 0006 30B3     		cbz	r0, .L282
1309:Middlewares/Third_Party/FreeRTOS/Source/CMSIS_RTOS/cmsis_os.c ****     return osErrorParameter;
1310:Middlewares/Third_Party/FreeRTOS/Source/CMSIS_RTOS/cmsis_os.c ****   }
1311:Middlewares/Third_Party/FreeRTOS/Source/CMSIS_RTOS/cmsis_os.c ****   
1312:Middlewares/Third_Party/FreeRTOS/Source/CMSIS_RTOS/cmsis_os.c ****   taskWoken = pdFALSE;
 2932              		.loc 1 1312 0
 2933 0008 0024     		movs	r4, #0
 2934 000a 0394     		str	r4, [sp, #12]
 2935              	.LBB284:
 2936              	.LBB285:
 2937              	.LBB286:
 2938              		.loc 2 109 0
 2939              		.syntax unified
 2940              	@ 109 "Drivers/CMSIS/Include/cmsis_gcc.h" 1
 2941 000c EFF30583 		MRS r3, ipsr
 2942              	@ 0 "" 2
 2943              		.thumb
 2944              		.syntax unified
 2945 0010 4068     		ldr	r0, [r0, #4]
 2946              	.LVL227:
 2947              	.LBE286:
 2948              	.LBE285:
 2949              	.LBE284:
1313:Middlewares/Third_Party/FreeRTOS/Source/CMSIS_RTOS/cmsis_os.c ****   
1314:Middlewares/Third_Party/FreeRTOS/Source/CMSIS_RTOS/cmsis_os.c ****   if (inHandlerMode()) {
 2950              		.loc 1 1314 0
 2951 0012 43B9     		cbnz	r3, .L287
1315:Middlewares/Third_Party/FreeRTOS/Source/CMSIS_RTOS/cmsis_os.c ****     if (xQueueSendFromISR(queue_id->handle, &mail, &taskWoken) != pdTRUE) {
1316:Middlewares/Third_Party/FreeRTOS/Source/CMSIS_RTOS/cmsis_os.c ****       return osErrorOS;
1317:Middlewares/Third_Party/FreeRTOS/Source/CMSIS_RTOS/cmsis_os.c ****     }
1318:Middlewares/Third_Party/FreeRTOS/Source/CMSIS_RTOS/cmsis_os.c ****     portEND_SWITCHING_ISR(taskWoken);
1319:Middlewares/Third_Party/FreeRTOS/Source/CMSIS_RTOS/cmsis_os.c ****   }
1320:Middlewares/Third_Party/FreeRTOS/Source/CMSIS_RTOS/cmsis_os.c ****   else {
1321:Middlewares/Third_Party/FreeRTOS/Source/CMSIS_RTOS/cmsis_os.c ****     if (xQueueSend(queue_id->handle, &mail, 0) != pdTRUE) { 
 2952              		.loc 1 1321 0
 2953 0014 1A46     		mov	r2, r3
 2954 0016 01A9     		add	r1, sp, #4
 2955              	.LVL228:
 2956 0018 FFF7FEFF 		bl	xQueueGenericSend
 2957              	.LVL229:
 2958 001c 0128     		cmp	r0, #1
 2959 001e 17D1     		bne	.L281
 2960              	.L280:
1322:Middlewares/Third_Party/FreeRTOS/Source/CMSIS_RTOS/cmsis_os.c ****       return osErrorOS;
1323:Middlewares/Third_Party/FreeRTOS/Source/CMSIS_RTOS/cmsis_os.c ****     }
1324:Middlewares/Third_Party/FreeRTOS/Source/CMSIS_RTOS/cmsis_os.c ****   }
1325:Middlewares/Third_Party/FreeRTOS/Source/CMSIS_RTOS/cmsis_os.c ****   
1326:Middlewares/Third_Party/FreeRTOS/Source/CMSIS_RTOS/cmsis_os.c ****   return osOK;
 2961              		.loc 1 1326 0
 2962 0020 0020     		movs	r0, #0
1327:Middlewares/Third_Party/FreeRTOS/Source/CMSIS_RTOS/cmsis_os.c **** }
 2963              		.loc 1 1327 0
 2964 0022 04B0     		add	sp, sp, #16
 2965              	.LCFI79:
 2966              		.cfi_remember_state
 2967              		.cfi_def_cfa_offset 8
ARM GAS  C:\Users\ALEX'S~1\AppData\Local\Temp\ccjCNn9l.s 			page 85


 2968              		@ sp needed
 2969 0024 10BD     		pop	{r4, pc}
 2970              	.LVL230:
 2971              	.L287:
 2972              	.LCFI80:
 2973              		.cfi_restore_state
1315:Middlewares/Third_Party/FreeRTOS/Source/CMSIS_RTOS/cmsis_os.c ****     if (xQueueSendFromISR(queue_id->handle, &mail, &taskWoken) != pdTRUE) {
 2974              		.loc 1 1315 0
 2975 0026 2346     		mov	r3, r4
 2976 0028 03AA     		add	r2, sp, #12
 2977 002a 01A9     		add	r1, sp, #4
 2978              	.LVL231:
 2979 002c FFF7FEFF 		bl	xQueueGenericSendFromISR
 2980              	.LVL232:
 2981 0030 0128     		cmp	r0, #1
 2982 0032 0DD1     		bne	.L281
1318:Middlewares/Third_Party/FreeRTOS/Source/CMSIS_RTOS/cmsis_os.c ****   }
 2983              		.loc 1 1318 0
 2984 0034 039B     		ldr	r3, [sp, #12]
 2985 0036 002B     		cmp	r3, #0
 2986 0038 F2D0     		beq	.L280
1318:Middlewares/Third_Party/FreeRTOS/Source/CMSIS_RTOS/cmsis_os.c ****   }
 2987              		.loc 1 1318 0 is_stmt 0 discriminator 1
 2988 003a 084B     		ldr	r3, .L288
 2989 003c 4FF08052 		mov	r2, #268435456
 2990 0040 1A60     		str	r2, [r3]
 2991              		.syntax unified
 2992              	@ 1318 "Middlewares/Third_Party/FreeRTOS/Source/CMSIS_RTOS/cmsis_os.c" 1
 2993 0042 BFF34F8F 		dsb
 2994              	@ 0 "" 2
 2995              	@ 1318 "Middlewares/Third_Party/FreeRTOS/Source/CMSIS_RTOS/cmsis_os.c" 1
 2996 0046 BFF36F8F 		isb
 2997              	@ 0 "" 2
1326:Middlewares/Third_Party/FreeRTOS/Source/CMSIS_RTOS/cmsis_os.c **** }
 2998              		.loc 1 1326 0 is_stmt 1 discriminator 1
 2999              		.thumb
 3000              		.syntax unified
 3001 004a 2046     		mov	r0, r4
 3002              		.loc 1 1327 0 discriminator 1
 3003 004c 04B0     		add	sp, sp, #16
 3004              	.LCFI81:
 3005              		.cfi_remember_state
 3006              		.cfi_def_cfa_offset 8
 3007              		@ sp needed
 3008 004e 10BD     		pop	{r4, pc}
 3009              	.L281:
 3010              	.LCFI82:
 3011              		.cfi_restore_state
1316:Middlewares/Third_Party/FreeRTOS/Source/CMSIS_RTOS/cmsis_os.c ****     }
 3012              		.loc 1 1316 0
 3013 0050 FF20     		movs	r0, #255
 3014              		.loc 1 1327 0
 3015 0052 04B0     		add	sp, sp, #16
 3016              	.LCFI83:
 3017              		.cfi_remember_state
 3018              		.cfi_def_cfa_offset 8
 3019              		@ sp needed
ARM GAS  C:\Users\ALEX'S~1\AppData\Local\Temp\ccjCNn9l.s 			page 86


 3020 0054 10BD     		pop	{r4, pc}
 3021              	.LVL233:
 3022              	.L282:
 3023              	.LCFI84:
 3024              		.cfi_restore_state
1309:Middlewares/Third_Party/FreeRTOS/Source/CMSIS_RTOS/cmsis_os.c ****   }
 3025              		.loc 1 1309 0
 3026 0056 8020     		movs	r0, #128
 3027              	.LVL234:
 3028              		.loc 1 1327 0
 3029 0058 04B0     		add	sp, sp, #16
 3030              	.LCFI85:
 3031              		.cfi_def_cfa_offset 8
 3032              		@ sp needed
 3033 005a 10BD     		pop	{r4, pc}
 3034              	.L289:
 3035              		.align	2
 3036              	.L288:
 3037 005c 04ED00E0 		.word	-536810236
 3038              		.cfi_endproc
 3039              	.LFE67:
 3041              		.section	.text.osMailGet,"ax",%progbits
 3042              		.align	1
 3043              		.p2align 2,,3
 3044              		.global	osMailGet
 3045              		.syntax unified
 3046              		.thumb
 3047              		.thumb_func
 3048              		.fpu fpv4-sp-d16
 3050              	osMailGet:
 3051              	.LFB68:
1328:Middlewares/Third_Party/FreeRTOS/Source/CMSIS_RTOS/cmsis_os.c **** 
1329:Middlewares/Third_Party/FreeRTOS/Source/CMSIS_RTOS/cmsis_os.c **** /**
1330:Middlewares/Third_Party/FreeRTOS/Source/CMSIS_RTOS/cmsis_os.c **** * @brief Get a mail from a queue
1331:Middlewares/Third_Party/FreeRTOS/Source/CMSIS_RTOS/cmsis_os.c **** * @param  queue_id   mail queue ID obtained with \ref osMailCreate.
1332:Middlewares/Third_Party/FreeRTOS/Source/CMSIS_RTOS/cmsis_os.c **** * @param millisec    timeout value or 0 in case of no time-out
1333:Middlewares/Third_Party/FreeRTOS/Source/CMSIS_RTOS/cmsis_os.c **** * @retval event that contains mail information or error code.
1334:Middlewares/Third_Party/FreeRTOS/Source/CMSIS_RTOS/cmsis_os.c **** * @note   MUST REMAIN UNCHANGED: \b osMailGet shall be consistent in every CMSIS-RTOS.
1335:Middlewares/Third_Party/FreeRTOS/Source/CMSIS_RTOS/cmsis_os.c **** */
1336:Middlewares/Third_Party/FreeRTOS/Source/CMSIS_RTOS/cmsis_os.c **** osEvent osMailGet (osMailQId queue_id, uint32_t millisec)
1337:Middlewares/Third_Party/FreeRTOS/Source/CMSIS_RTOS/cmsis_os.c **** {
 3052              		.loc 1 1337 0
 3053              		.cfi_startproc
 3054              		@ args = 0, pretend = 0, frame = 16
 3055              		@ frame_needed = 0, uses_anonymous_args = 0
 3056              	.LVL235:
 3057 0000 30B5     		push	{r4, r5, lr}
 3058              	.LCFI86:
 3059              		.cfi_def_cfa_offset 12
 3060              		.cfi_offset 4, -12
 3061              		.cfi_offset 5, -8
 3062              		.cfi_offset 14, -4
 3063 0002 85B0     		sub	sp, sp, #20
 3064              	.LCFI87:
 3065              		.cfi_def_cfa_offset 32
 3066              		.loc 1 1337 0
 3067 0004 0446     		mov	r4, r0
ARM GAS  C:\Users\ALEX'S~1\AppData\Local\Temp\ccjCNn9l.s 			page 87


1338:Middlewares/Third_Party/FreeRTOS/Source/CMSIS_RTOS/cmsis_os.c ****   portBASE_TYPE taskWoken;
1339:Middlewares/Third_Party/FreeRTOS/Source/CMSIS_RTOS/cmsis_os.c ****   TickType_t ticks;
1340:Middlewares/Third_Party/FreeRTOS/Source/CMSIS_RTOS/cmsis_os.c ****   osEvent event;
1341:Middlewares/Third_Party/FreeRTOS/Source/CMSIS_RTOS/cmsis_os.c ****   
1342:Middlewares/Third_Party/FreeRTOS/Source/CMSIS_RTOS/cmsis_os.c ****   event.def.mail_id = queue_id;
 3068              		.loc 1 1342 0
 3069 0006 0391     		str	r1, [sp, #12]
1343:Middlewares/Third_Party/FreeRTOS/Source/CMSIS_RTOS/cmsis_os.c ****   
1344:Middlewares/Third_Party/FreeRTOS/Source/CMSIS_RTOS/cmsis_os.c ****   if (queue_id == NULL) {
 3070              		.loc 1 1344 0
 3071 0008 0029     		cmp	r1, #0
 3072 000a 2DD0     		beq	.L304
1345:Middlewares/Third_Party/FreeRTOS/Source/CMSIS_RTOS/cmsis_os.c ****     event.status = osErrorParameter;
1346:Middlewares/Third_Party/FreeRTOS/Source/CMSIS_RTOS/cmsis_os.c ****     return event;
1347:Middlewares/Third_Party/FreeRTOS/Source/CMSIS_RTOS/cmsis_os.c ****   }
1348:Middlewares/Third_Party/FreeRTOS/Source/CMSIS_RTOS/cmsis_os.c ****   
1349:Middlewares/Third_Party/FreeRTOS/Source/CMSIS_RTOS/cmsis_os.c ****   taskWoken = pdFALSE;
 3073              		.loc 1 1349 0
 3074 000c 0023     		movs	r3, #0
 3075 000e 0093     		str	r3, [sp]
 3076              	.LVL236:
 3077              	.LBB287:
 3078              	.LBB288:
 3079              	.LBB289:
 3080              		.loc 2 109 0
 3081              		.syntax unified
 3082              	@ 109 "Drivers/CMSIS/Include/cmsis_gcc.h" 1
 3083 0010 EFF30583 		MRS r3, ipsr
 3084              	@ 0 "" 2
 3085              		.thumb
 3086              		.syntax unified
 3087 0014 4868     		ldr	r0, [r1, #4]
 3088              	.LVL237:
 3089              	.LBE289:
 3090              	.LBE288:
 3091              	.LBE287:
1350:Middlewares/Third_Party/FreeRTOS/Source/CMSIS_RTOS/cmsis_os.c ****   
1351:Middlewares/Third_Party/FreeRTOS/Source/CMSIS_RTOS/cmsis_os.c ****   ticks = 0;
1352:Middlewares/Third_Party/FreeRTOS/Source/CMSIS_RTOS/cmsis_os.c ****   if (millisec == osWaitForever) {
1353:Middlewares/Third_Party/FreeRTOS/Source/CMSIS_RTOS/cmsis_os.c ****     ticks = portMAX_DELAY;
1354:Middlewares/Third_Party/FreeRTOS/Source/CMSIS_RTOS/cmsis_os.c ****   }
1355:Middlewares/Third_Party/FreeRTOS/Source/CMSIS_RTOS/cmsis_os.c ****   else if (millisec != 0) {
1356:Middlewares/Third_Party/FreeRTOS/Source/CMSIS_RTOS/cmsis_os.c ****     ticks = millisec / portTICK_PERIOD_MS;
1357:Middlewares/Third_Party/FreeRTOS/Source/CMSIS_RTOS/cmsis_os.c ****     if (ticks == 0) {
1358:Middlewares/Third_Party/FreeRTOS/Source/CMSIS_RTOS/cmsis_os.c ****       ticks = 1;
1359:Middlewares/Third_Party/FreeRTOS/Source/CMSIS_RTOS/cmsis_os.c ****     }
1360:Middlewares/Third_Party/FreeRTOS/Source/CMSIS_RTOS/cmsis_os.c ****   }
1361:Middlewares/Third_Party/FreeRTOS/Source/CMSIS_RTOS/cmsis_os.c ****   
1362:Middlewares/Third_Party/FreeRTOS/Source/CMSIS_RTOS/cmsis_os.c ****   if (inHandlerMode()) {
 3092              		.loc 1 1362 0
 3093 0016 93B9     		cbnz	r3, .L305
1363:Middlewares/Third_Party/FreeRTOS/Source/CMSIS_RTOS/cmsis_os.c ****     if (xQueueReceiveFromISR(queue_id->handle, &event.value.p, &taskWoken) == pdTRUE) {
1364:Middlewares/Third_Party/FreeRTOS/Source/CMSIS_RTOS/cmsis_os.c ****       /* We have mail */
1365:Middlewares/Third_Party/FreeRTOS/Source/CMSIS_RTOS/cmsis_os.c ****       event.status = osEventMail;
1366:Middlewares/Third_Party/FreeRTOS/Source/CMSIS_RTOS/cmsis_os.c ****     }
1367:Middlewares/Third_Party/FreeRTOS/Source/CMSIS_RTOS/cmsis_os.c ****     else {
1368:Middlewares/Third_Party/FreeRTOS/Source/CMSIS_RTOS/cmsis_os.c ****       event.status = osOK;
ARM GAS  C:\Users\ALEX'S~1\AppData\Local\Temp\ccjCNn9l.s 			page 88


1369:Middlewares/Third_Party/FreeRTOS/Source/CMSIS_RTOS/cmsis_os.c ****     }
1370:Middlewares/Third_Party/FreeRTOS/Source/CMSIS_RTOS/cmsis_os.c ****     portEND_SWITCHING_ISR(taskWoken);
1371:Middlewares/Third_Party/FreeRTOS/Source/CMSIS_RTOS/cmsis_os.c ****   }
1372:Middlewares/Third_Party/FreeRTOS/Source/CMSIS_RTOS/cmsis_os.c ****   else {
1373:Middlewares/Third_Party/FreeRTOS/Source/CMSIS_RTOS/cmsis_os.c ****     if (xQueueReceive(queue_id->handle, &event.value.p, ticks) == pdTRUE) {
 3094              		.loc 1 1373 0
 3095 0018 02A9     		add	r1, sp, #8
 3096              	.LVL238:
 3097 001a 1546     		mov	r5, r2
 3098 001c FFF7FEFF 		bl	xQueueGenericReceive
 3099              	.LVL239:
 3100 0020 0128     		cmp	r0, #1
 3101 0022 2CD0     		beq	.L306
1374:Middlewares/Third_Party/FreeRTOS/Source/CMSIS_RTOS/cmsis_os.c ****       /* We have mail */
1375:Middlewares/Third_Party/FreeRTOS/Source/CMSIS_RTOS/cmsis_os.c ****       event.status = osEventMail;
1376:Middlewares/Third_Party/FreeRTOS/Source/CMSIS_RTOS/cmsis_os.c ****     }
1377:Middlewares/Third_Party/FreeRTOS/Source/CMSIS_RTOS/cmsis_os.c ****     else {
1378:Middlewares/Third_Party/FreeRTOS/Source/CMSIS_RTOS/cmsis_os.c ****       event.status = (ticks == 0) ? osOK : osEventTimeout;
 3102              		.loc 1 1378 0
 3103 0024 002D     		cmp	r5, #0
 3104 0026 14BF     		ite	ne
 3105 0028 4023     		movne	r3, #64
 3106 002a 0023     		moveq	r3, #0
 3107 002c 0193     		str	r3, [sp, #4]
 3108              	.LVL240:
 3109              	.L295:
1379:Middlewares/Third_Party/FreeRTOS/Source/CMSIS_RTOS/cmsis_os.c ****     }
1380:Middlewares/Third_Party/FreeRTOS/Source/CMSIS_RTOS/cmsis_os.c ****   }
1381:Middlewares/Third_Party/FreeRTOS/Source/CMSIS_RTOS/cmsis_os.c ****   
1382:Middlewares/Third_Party/FreeRTOS/Source/CMSIS_RTOS/cmsis_os.c ****   return event;
 3110              		.loc 1 1382 0
 3111 002e 04AB     		add	r3, sp, #16
 3112 0030 13E90700 		ldmdb	r3, {r0, r1, r2}
 3113 0034 84E80700 		stm	r4, {r0, r1, r2}
1383:Middlewares/Third_Party/FreeRTOS/Source/CMSIS_RTOS/cmsis_os.c **** }
 3114              		.loc 1 1383 0
 3115 0038 2046     		mov	r0, r4
 3116 003a 05B0     		add	sp, sp, #20
 3117              	.LCFI88:
 3118              		.cfi_remember_state
 3119              		.cfi_def_cfa_offset 12
 3120              		@ sp needed
 3121 003c 30BD     		pop	{r4, r5, pc}
 3122              	.LVL241:
 3123              	.L305:
 3124              	.LCFI89:
 3125              		.cfi_restore_state
1363:Middlewares/Third_Party/FreeRTOS/Source/CMSIS_RTOS/cmsis_os.c ****       /* We have mail */
 3126              		.loc 1 1363 0
 3127 003e 6A46     		mov	r2, sp
 3128              	.LVL242:
 3129 0040 02A9     		add	r1, sp, #8
 3130              	.LVL243:
 3131 0042 FFF7FEFF 		bl	xQueueReceiveFromISR
 3132              	.LVL244:
1370:Middlewares/Third_Party/FreeRTOS/Source/CMSIS_RTOS/cmsis_os.c ****   }
 3133              		.loc 1 1370 0
ARM GAS  C:\Users\ALEX'S~1\AppData\Local\Temp\ccjCNn9l.s 			page 89


 3134 0046 009B     		ldr	r3, [sp]
1365:Middlewares/Third_Party/FreeRTOS/Source/CMSIS_RTOS/cmsis_os.c ****     }
 3135              		.loc 1 1365 0
 3136 0048 0128     		cmp	r0, #1
 3137 004a 14BF     		ite	ne
 3138 004c 0022     		movne	r2, #0
 3139 004e 2022     		moveq	r2, #32
 3140 0050 0192     		str	r2, [sp, #4]
1370:Middlewares/Third_Party/FreeRTOS/Source/CMSIS_RTOS/cmsis_os.c ****   }
 3141              		.loc 1 1370 0
 3142 0052 002B     		cmp	r3, #0
 3143 0054 EBD0     		beq	.L295
1370:Middlewares/Third_Party/FreeRTOS/Source/CMSIS_RTOS/cmsis_os.c ****   }
 3144              		.loc 1 1370 0 is_stmt 0 discriminator 1
 3145 0056 0B4B     		ldr	r3, .L307
 3146 0058 4FF08052 		mov	r2, #268435456
 3147 005c 1A60     		str	r2, [r3]
 3148              		.syntax unified
 3149              	@ 1370 "Middlewares/Third_Party/FreeRTOS/Source/CMSIS_RTOS/cmsis_os.c" 1
 3150 005e BFF34F8F 		dsb
 3151              	@ 0 "" 2
 3152              	@ 1370 "Middlewares/Third_Party/FreeRTOS/Source/CMSIS_RTOS/cmsis_os.c" 1
 3153 0062 BFF36F8F 		isb
 3154              	@ 0 "" 2
 3155              		.thumb
 3156              		.syntax unified
 3157 0066 E2E7     		b	.L295
 3158              	.LVL245:
 3159              	.L304:
1345:Middlewares/Third_Party/FreeRTOS/Source/CMSIS_RTOS/cmsis_os.c ****     return event;
 3160              		.loc 1 1345 0 is_stmt 1
 3161 0068 04AB     		add	r3, sp, #16
 3162 006a 8022     		movs	r2, #128
 3163              	.LVL246:
 3164 006c 43F80C2D 		str	r2, [r3, #-12]!
1346:Middlewares/Third_Party/FreeRTOS/Source/CMSIS_RTOS/cmsis_os.c ****   }
 3165              		.loc 1 1346 0
 3166 0070 93E80700 		ldm	r3, {r0, r1, r2}
 3167              	.LVL247:
 3168 0074 84E80700 		stm	r4, {r0, r1, r2}
 3169              		.loc 1 1383 0
 3170 0078 2046     		mov	r0, r4
 3171 007a 05B0     		add	sp, sp, #20
 3172              	.LCFI90:
 3173              		.cfi_remember_state
 3174              		.cfi_def_cfa_offset 12
 3175              		@ sp needed
 3176 007c 30BD     		pop	{r4, r5, pc}
 3177              	.LVL248:
 3178              	.L306:
 3179              	.LCFI91:
 3180              		.cfi_restore_state
1375:Middlewares/Third_Party/FreeRTOS/Source/CMSIS_RTOS/cmsis_os.c ****     }
 3181              		.loc 1 1375 0
 3182 007e 2023     		movs	r3, #32
 3183 0080 0193     		str	r3, [sp, #4]
 3184 0082 D4E7     		b	.L295
ARM GAS  C:\Users\ALEX'S~1\AppData\Local\Temp\ccjCNn9l.s 			page 90


 3185              	.L308:
 3186              		.align	2
 3187              	.L307:
 3188 0084 04ED00E0 		.word	-536810236
 3189              		.cfi_endproc
 3190              	.LFE68:
 3192              		.section	.text.osMailFree,"ax",%progbits
 3193              		.align	1
 3194              		.p2align 2,,3
 3195              		.global	osMailFree
 3196              		.syntax unified
 3197              		.thumb
 3198              		.thumb_func
 3199              		.fpu fpv4-sp-d16
 3201              	osMailFree:
 3202              	.LFB69:
1384:Middlewares/Third_Party/FreeRTOS/Source/CMSIS_RTOS/cmsis_os.c **** 
1385:Middlewares/Third_Party/FreeRTOS/Source/CMSIS_RTOS/cmsis_os.c **** /**
1386:Middlewares/Third_Party/FreeRTOS/Source/CMSIS_RTOS/cmsis_os.c **** * @brief Free a memory block from a mail
1387:Middlewares/Third_Party/FreeRTOS/Source/CMSIS_RTOS/cmsis_os.c **** * @param  queue_id mail queue ID obtained with \ref osMailCreate.
1388:Middlewares/Third_Party/FreeRTOS/Source/CMSIS_RTOS/cmsis_os.c **** * @param  mail     pointer to the memory block that was obtained with \ref osMailGet.
1389:Middlewares/Third_Party/FreeRTOS/Source/CMSIS_RTOS/cmsis_os.c **** * @retval status code that indicates the execution status of the function.
1390:Middlewares/Third_Party/FreeRTOS/Source/CMSIS_RTOS/cmsis_os.c **** * @note   MUST REMAIN UNCHANGED: \b osMailFree shall be consistent in every CMSIS-RTOS.
1391:Middlewares/Third_Party/FreeRTOS/Source/CMSIS_RTOS/cmsis_os.c **** */
1392:Middlewares/Third_Party/FreeRTOS/Source/CMSIS_RTOS/cmsis_os.c **** osStatus osMailFree (osMailQId queue_id, void *mail)
1393:Middlewares/Third_Party/FreeRTOS/Source/CMSIS_RTOS/cmsis_os.c **** {
 3203              		.loc 1 1393 0
 3204              		.cfi_startproc
 3205              		@ args = 0, pretend = 0, frame = 0
 3206              		@ frame_needed = 0, uses_anonymous_args = 0
 3207              		@ link register save eliminated.
 3208              	.LVL249:
1394:Middlewares/Third_Party/FreeRTOS/Source/CMSIS_RTOS/cmsis_os.c ****   if (queue_id == NULL) {
 3209              		.loc 1 1394 0
 3210 0000 B0B1     		cbz	r0, .L314
1395:Middlewares/Third_Party/FreeRTOS/Source/CMSIS_RTOS/cmsis_os.c ****     return osErrorParameter;
1396:Middlewares/Third_Party/FreeRTOS/Source/CMSIS_RTOS/cmsis_os.c ****   }
1397:Middlewares/Third_Party/FreeRTOS/Source/CMSIS_RTOS/cmsis_os.c ****   
1398:Middlewares/Third_Party/FreeRTOS/Source/CMSIS_RTOS/cmsis_os.c ****   return osPoolFree(queue_id->pool, mail);
 3211              		.loc 1 1398 0
 3212 0002 8368     		ldr	r3, [r0, #8]
 3213              	.LVL250:
 3214              	.LBB290:
 3215              	.LBB291:
1046:Middlewares/Third_Party/FreeRTOS/Source/CMSIS_RTOS/cmsis_os.c ****     return osErrorParameter;
 3216              		.loc 1 1046 0
 3217 0004 A3B1     		cbz	r3, .L314
1050:Middlewares/Third_Party/FreeRTOS/Source/CMSIS_RTOS/cmsis_os.c ****     return osErrorParameter;
 3218              		.loc 1 1050 0
 3219 0006 99B1     		cbz	r1, .L314
1054:Middlewares/Third_Party/FreeRTOS/Source/CMSIS_RTOS/cmsis_os.c ****     return osErrorParameter;
 3220              		.loc 1 1054 0
 3221 0008 1868     		ldr	r0, [r3]
 3222              	.LVL251:
 3223 000a 8142     		cmp	r1, r0
 3224 000c 10D3     		bcc	.L314
1059:Middlewares/Third_Party/FreeRTOS/Source/CMSIS_RTOS/cmsis_os.c ****     return osErrorParameter;
ARM GAS  C:\Users\ALEX'S~1\AppData\Local\Temp\ccjCNn9l.s 			page 91


 3225              		.loc 1 1059 0
 3226 000e DA68     		ldr	r2, [r3, #12]
1058:Middlewares/Third_Party/FreeRTOS/Source/CMSIS_RTOS/cmsis_os.c ****   if (index % pool_id->item_sz) {
 3227              		.loc 1 1058 0
 3228 0010 091A     		subs	r1, r1, r0
 3229              	.LVL252:
 3230              	.LBE291:
 3231              	.LBE290:
1393:Middlewares/Third_Party/FreeRTOS/Source/CMSIS_RTOS/cmsis_os.c ****   if (queue_id == NULL) {
 3232              		.loc 1 1393 0
 3233 0012 10B4     		push	{r4}
 3234              	.LCFI92:
 3235              		.cfi_def_cfa_offset 4
 3236              		.cfi_offset 4, -4
 3237              	.LBB293:
 3238              	.LBB292:
1059:Middlewares/Third_Party/FreeRTOS/Source/CMSIS_RTOS/cmsis_os.c ****     return osErrorParameter;
 3239              		.loc 1 1059 0
 3240 0014 B1FBF2F4 		udiv	r4, r1, r2
 3241 0018 02FB1411 		mls	r1, r2, r4, r1
 3242              	.LVL253:
 3243 001c 51B9     		cbnz	r1, .L316
 3244              	.LVL254:
1063:Middlewares/Third_Party/FreeRTOS/Source/CMSIS_RTOS/cmsis_os.c ****     return osErrorParameter;
 3245              		.loc 1 1063 0
 3246 001e 9A68     		ldr	r2, [r3, #8]
 3247 0020 9442     		cmp	r4, r2
 3248 0022 07D2     		bcs	.L316
1067:Middlewares/Third_Party/FreeRTOS/Source/CMSIS_RTOS/cmsis_os.c ****   
 3249              		.loc 1 1067 0
 3250 0024 5B68     		ldr	r3, [r3, #4]
 3251              	.LVL255:
 3252 0026 1955     		strb	r1, [r3, r4]
 3253              	.LVL256:
1069:Middlewares/Third_Party/FreeRTOS/Source/CMSIS_RTOS/cmsis_os.c **** }
 3254              		.loc 1 1069 0
 3255 0028 0846     		mov	r0, r1
 3256              	.LBE292:
 3257              	.LBE293:
1399:Middlewares/Third_Party/FreeRTOS/Source/CMSIS_RTOS/cmsis_os.c **** }
 3258              		.loc 1 1399 0
 3259 002a 5DF8044B 		ldr	r4, [sp], #4
 3260              	.LCFI93:
 3261              		.cfi_restore 4
 3262              		.cfi_def_cfa_offset 0
 3263              	.LVL257:
 3264 002e 7047     		bx	lr
 3265              	.LVL258:
 3266              	.L314:
1395:Middlewares/Third_Party/FreeRTOS/Source/CMSIS_RTOS/cmsis_os.c ****   }
 3267              		.loc 1 1395 0
 3268 0030 8020     		movs	r0, #128
 3269              		.loc 1 1399 0
 3270 0032 7047     		bx	lr
 3271              	.LVL259:
 3272              	.L316:
 3273              	.LCFI94:
ARM GAS  C:\Users\ALEX'S~1\AppData\Local\Temp\ccjCNn9l.s 			page 92


 3274              		.cfi_def_cfa_offset 4
 3275              		.cfi_offset 4, -4
1395:Middlewares/Third_Party/FreeRTOS/Source/CMSIS_RTOS/cmsis_os.c ****   }
 3276              		.loc 1 1395 0
 3277 0034 8020     		movs	r0, #128
 3278              		.loc 1 1399 0
 3279 0036 5DF8044B 		ldr	r4, [sp], #4
 3280              	.LCFI95:
 3281              		.cfi_restore 4
 3282              		.cfi_def_cfa_offset 0
 3283 003a 7047     		bx	lr
 3284              		.cfi_endproc
 3285              	.LFE69:
 3287              		.section	.text.osSystickHandler,"ax",%progbits
 3288              		.align	1
 3289              		.p2align 2,,3
 3290              		.global	osSystickHandler
 3291              		.syntax unified
 3292              		.thumb
 3293              		.thumb_func
 3294              		.fpu fpv4-sp-d16
 3296              	osSystickHandler:
 3297              	.LFB70:
1400:Middlewares/Third_Party/FreeRTOS/Source/CMSIS_RTOS/cmsis_os.c **** #endif  /* Use Mail Queues */
1401:Middlewares/Third_Party/FreeRTOS/Source/CMSIS_RTOS/cmsis_os.c **** 
1402:Middlewares/Third_Party/FreeRTOS/Source/CMSIS_RTOS/cmsis_os.c **** /*************************** Additional specific APIs to Free RTOS ************/
1403:Middlewares/Third_Party/FreeRTOS/Source/CMSIS_RTOS/cmsis_os.c **** /**
1404:Middlewares/Third_Party/FreeRTOS/Source/CMSIS_RTOS/cmsis_os.c **** * @brief  Handles the tick increment
1405:Middlewares/Third_Party/FreeRTOS/Source/CMSIS_RTOS/cmsis_os.c **** * @param  none.
1406:Middlewares/Third_Party/FreeRTOS/Source/CMSIS_RTOS/cmsis_os.c **** * @retval none.
1407:Middlewares/Third_Party/FreeRTOS/Source/CMSIS_RTOS/cmsis_os.c **** */
1408:Middlewares/Third_Party/FreeRTOS/Source/CMSIS_RTOS/cmsis_os.c **** void osSystickHandler(void)
1409:Middlewares/Third_Party/FreeRTOS/Source/CMSIS_RTOS/cmsis_os.c **** {
 3298              		.loc 1 1409 0
 3299              		.cfi_startproc
 3300              		@ args = 0, pretend = 0, frame = 0
 3301              		@ frame_needed = 0, uses_anonymous_args = 0
 3302 0000 08B5     		push	{r3, lr}
 3303              	.LCFI96:
 3304              		.cfi_def_cfa_offset 8
 3305              		.cfi_offset 3, -8
 3306              		.cfi_offset 14, -4
1410:Middlewares/Third_Party/FreeRTOS/Source/CMSIS_RTOS/cmsis_os.c **** 
1411:Middlewares/Third_Party/FreeRTOS/Source/CMSIS_RTOS/cmsis_os.c **** #if (INCLUDE_xTaskGetSchedulerState  == 1 )
1412:Middlewares/Third_Party/FreeRTOS/Source/CMSIS_RTOS/cmsis_os.c ****   if (xTaskGetSchedulerState() != taskSCHEDULER_NOT_STARTED)
 3307              		.loc 1 1412 0
 3308 0002 FFF7FEFF 		bl	xTaskGetSchedulerState
 3309              	.LVL260:
 3310 0006 0128     		cmp	r0, #1
 3311 0008 03D0     		beq	.L321
1413:Middlewares/Third_Party/FreeRTOS/Source/CMSIS_RTOS/cmsis_os.c ****   {
1414:Middlewares/Third_Party/FreeRTOS/Source/CMSIS_RTOS/cmsis_os.c **** #endif  /* INCLUDE_xTaskGetSchedulerState */  
1415:Middlewares/Third_Party/FreeRTOS/Source/CMSIS_RTOS/cmsis_os.c ****     xPortSysTickHandler();
1416:Middlewares/Third_Party/FreeRTOS/Source/CMSIS_RTOS/cmsis_os.c **** #if (INCLUDE_xTaskGetSchedulerState  == 1 )
1417:Middlewares/Third_Party/FreeRTOS/Source/CMSIS_RTOS/cmsis_os.c ****   }
1418:Middlewares/Third_Party/FreeRTOS/Source/CMSIS_RTOS/cmsis_os.c **** #endif  /* INCLUDE_xTaskGetSchedulerState */  
1419:Middlewares/Third_Party/FreeRTOS/Source/CMSIS_RTOS/cmsis_os.c **** }
ARM GAS  C:\Users\ALEX'S~1\AppData\Local\Temp\ccjCNn9l.s 			page 93


 3312              		.loc 1 1419 0
 3313 000a BDE80840 		pop	{r3, lr}
 3314              	.LCFI97:
 3315              		.cfi_remember_state
 3316              		.cfi_restore 14
 3317              		.cfi_restore 3
 3318              		.cfi_def_cfa_offset 0
1415:Middlewares/Third_Party/FreeRTOS/Source/CMSIS_RTOS/cmsis_os.c **** #if (INCLUDE_xTaskGetSchedulerState  == 1 )
 3319              		.loc 1 1415 0
 3320 000e FFF7FEBF 		b	xPortSysTickHandler
 3321              	.LVL261:
 3322              	.L321:
 3323              	.LCFI98:
 3324              		.cfi_restore_state
 3325              		.loc 1 1419 0
 3326 0012 08BD     		pop	{r3, pc}
 3327              		.cfi_endproc
 3328              	.LFE70:
 3330              		.section	.text.osThreadSuspend,"ax",%progbits
 3331              		.align	1
 3332              		.p2align 2,,3
 3333              		.global	osThreadSuspend
 3334              		.syntax unified
 3335              		.thumb
 3336              		.thumb_func
 3337              		.fpu fpv4-sp-d16
 3339              	osThreadSuspend:
 3340              	.LFB71:
1420:Middlewares/Third_Party/FreeRTOS/Source/CMSIS_RTOS/cmsis_os.c **** 
1421:Middlewares/Third_Party/FreeRTOS/Source/CMSIS_RTOS/cmsis_os.c **** #if ( INCLUDE_eTaskGetState == 1 )
1422:Middlewares/Third_Party/FreeRTOS/Source/CMSIS_RTOS/cmsis_os.c **** /**
1423:Middlewares/Third_Party/FreeRTOS/Source/CMSIS_RTOS/cmsis_os.c **** * @brief  Obtain the state of any thread.
1424:Middlewares/Third_Party/FreeRTOS/Source/CMSIS_RTOS/cmsis_os.c **** * @param   thread_id   thread ID obtained by \ref osThreadCreate or \ref osThreadGetId.
1425:Middlewares/Third_Party/FreeRTOS/Source/CMSIS_RTOS/cmsis_os.c **** * @retval  the stae of the thread, states are encoded by the osThreadState enumerated type.
1426:Middlewares/Third_Party/FreeRTOS/Source/CMSIS_RTOS/cmsis_os.c **** */
1427:Middlewares/Third_Party/FreeRTOS/Source/CMSIS_RTOS/cmsis_os.c **** osThreadState osThreadGetState(osThreadId thread_id)
1428:Middlewares/Third_Party/FreeRTOS/Source/CMSIS_RTOS/cmsis_os.c **** {
1429:Middlewares/Third_Party/FreeRTOS/Source/CMSIS_RTOS/cmsis_os.c ****   eTaskState ThreadState;
1430:Middlewares/Third_Party/FreeRTOS/Source/CMSIS_RTOS/cmsis_os.c ****   osThreadState result;
1431:Middlewares/Third_Party/FreeRTOS/Source/CMSIS_RTOS/cmsis_os.c ****   
1432:Middlewares/Third_Party/FreeRTOS/Source/CMSIS_RTOS/cmsis_os.c ****   ThreadState = eTaskGetState(thread_id);
1433:Middlewares/Third_Party/FreeRTOS/Source/CMSIS_RTOS/cmsis_os.c ****   
1434:Middlewares/Third_Party/FreeRTOS/Source/CMSIS_RTOS/cmsis_os.c ****   switch (ThreadState)
1435:Middlewares/Third_Party/FreeRTOS/Source/CMSIS_RTOS/cmsis_os.c ****   {
1436:Middlewares/Third_Party/FreeRTOS/Source/CMSIS_RTOS/cmsis_os.c ****   case eRunning :
1437:Middlewares/Third_Party/FreeRTOS/Source/CMSIS_RTOS/cmsis_os.c ****     result = osThreadRunning;
1438:Middlewares/Third_Party/FreeRTOS/Source/CMSIS_RTOS/cmsis_os.c ****     break;
1439:Middlewares/Third_Party/FreeRTOS/Source/CMSIS_RTOS/cmsis_os.c ****   case eReady :
1440:Middlewares/Third_Party/FreeRTOS/Source/CMSIS_RTOS/cmsis_os.c ****     result = osThreadReady;
1441:Middlewares/Third_Party/FreeRTOS/Source/CMSIS_RTOS/cmsis_os.c ****     break;
1442:Middlewares/Third_Party/FreeRTOS/Source/CMSIS_RTOS/cmsis_os.c ****   case eBlocked :
1443:Middlewares/Third_Party/FreeRTOS/Source/CMSIS_RTOS/cmsis_os.c ****     result = osThreadBlocked;
1444:Middlewares/Third_Party/FreeRTOS/Source/CMSIS_RTOS/cmsis_os.c ****     break;
1445:Middlewares/Third_Party/FreeRTOS/Source/CMSIS_RTOS/cmsis_os.c ****   case eSuspended :
1446:Middlewares/Third_Party/FreeRTOS/Source/CMSIS_RTOS/cmsis_os.c ****     result = osThreadSuspended;
1447:Middlewares/Third_Party/FreeRTOS/Source/CMSIS_RTOS/cmsis_os.c ****     break;
1448:Middlewares/Third_Party/FreeRTOS/Source/CMSIS_RTOS/cmsis_os.c ****   case eDeleted :
ARM GAS  C:\Users\ALEX'S~1\AppData\Local\Temp\ccjCNn9l.s 			page 94


1449:Middlewares/Third_Party/FreeRTOS/Source/CMSIS_RTOS/cmsis_os.c ****     result = osThreadDeleted;
1450:Middlewares/Third_Party/FreeRTOS/Source/CMSIS_RTOS/cmsis_os.c ****     break;
1451:Middlewares/Third_Party/FreeRTOS/Source/CMSIS_RTOS/cmsis_os.c ****   default:
1452:Middlewares/Third_Party/FreeRTOS/Source/CMSIS_RTOS/cmsis_os.c ****     result = osThreadError;
1453:Middlewares/Third_Party/FreeRTOS/Source/CMSIS_RTOS/cmsis_os.c ****   } 
1454:Middlewares/Third_Party/FreeRTOS/Source/CMSIS_RTOS/cmsis_os.c ****   
1455:Middlewares/Third_Party/FreeRTOS/Source/CMSIS_RTOS/cmsis_os.c ****   return result;
1456:Middlewares/Third_Party/FreeRTOS/Source/CMSIS_RTOS/cmsis_os.c **** }
1457:Middlewares/Third_Party/FreeRTOS/Source/CMSIS_RTOS/cmsis_os.c **** #endif /* INCLUDE_eTaskGetState */
1458:Middlewares/Third_Party/FreeRTOS/Source/CMSIS_RTOS/cmsis_os.c **** 
1459:Middlewares/Third_Party/FreeRTOS/Source/CMSIS_RTOS/cmsis_os.c **** #if (INCLUDE_eTaskGetState == 1)
1460:Middlewares/Third_Party/FreeRTOS/Source/CMSIS_RTOS/cmsis_os.c **** /**
1461:Middlewares/Third_Party/FreeRTOS/Source/CMSIS_RTOS/cmsis_os.c **** * @brief Check if a thread is already suspended or not.
1462:Middlewares/Third_Party/FreeRTOS/Source/CMSIS_RTOS/cmsis_os.c **** * @param thread_id thread ID obtained by \ref osThreadCreate or \ref osThreadGetId.
1463:Middlewares/Third_Party/FreeRTOS/Source/CMSIS_RTOS/cmsis_os.c **** * @retval status code that indicates the execution status of the function.
1464:Middlewares/Third_Party/FreeRTOS/Source/CMSIS_RTOS/cmsis_os.c **** */
1465:Middlewares/Third_Party/FreeRTOS/Source/CMSIS_RTOS/cmsis_os.c **** osStatus osThreadIsSuspended(osThreadId thread_id)
1466:Middlewares/Third_Party/FreeRTOS/Source/CMSIS_RTOS/cmsis_os.c **** {
1467:Middlewares/Third_Party/FreeRTOS/Source/CMSIS_RTOS/cmsis_os.c ****   if (eTaskGetState(thread_id) == eSuspended)
1468:Middlewares/Third_Party/FreeRTOS/Source/CMSIS_RTOS/cmsis_os.c ****     return osOK;
1469:Middlewares/Third_Party/FreeRTOS/Source/CMSIS_RTOS/cmsis_os.c ****   else
1470:Middlewares/Third_Party/FreeRTOS/Source/CMSIS_RTOS/cmsis_os.c ****     return osErrorOS;
1471:Middlewares/Third_Party/FreeRTOS/Source/CMSIS_RTOS/cmsis_os.c **** }
1472:Middlewares/Third_Party/FreeRTOS/Source/CMSIS_RTOS/cmsis_os.c **** #endif /* INCLUDE_eTaskGetState */
1473:Middlewares/Third_Party/FreeRTOS/Source/CMSIS_RTOS/cmsis_os.c **** /**
1474:Middlewares/Third_Party/FreeRTOS/Source/CMSIS_RTOS/cmsis_os.c **** * @brief  Suspend execution of a thread.
1475:Middlewares/Third_Party/FreeRTOS/Source/CMSIS_RTOS/cmsis_os.c **** * @param   thread_id   thread ID obtained by \ref osThreadCreate or \ref osThreadGetId.
1476:Middlewares/Third_Party/FreeRTOS/Source/CMSIS_RTOS/cmsis_os.c **** * @retval  status code that indicates the execution status of the function.
1477:Middlewares/Third_Party/FreeRTOS/Source/CMSIS_RTOS/cmsis_os.c **** */
1478:Middlewares/Third_Party/FreeRTOS/Source/CMSIS_RTOS/cmsis_os.c **** osStatus osThreadSuspend (osThreadId thread_id)
1479:Middlewares/Third_Party/FreeRTOS/Source/CMSIS_RTOS/cmsis_os.c **** {
 3341              		.loc 1 1479 0
 3342              		.cfi_startproc
 3343              		@ args = 0, pretend = 0, frame = 0
 3344              		@ frame_needed = 0, uses_anonymous_args = 0
 3345              	.LVL262:
 3346 0000 08B5     		push	{r3, lr}
 3347              	.LCFI99:
 3348              		.cfi_def_cfa_offset 8
 3349              		.cfi_offset 3, -8
 3350              		.cfi_offset 14, -4
1480:Middlewares/Third_Party/FreeRTOS/Source/CMSIS_RTOS/cmsis_os.c **** #if (INCLUDE_vTaskSuspend == 1)
1481:Middlewares/Third_Party/FreeRTOS/Source/CMSIS_RTOS/cmsis_os.c ****     vTaskSuspend(thread_id);
 3351              		.loc 1 1481 0
 3352 0002 FFF7FEFF 		bl	vTaskSuspend
 3353              	.LVL263:
1482:Middlewares/Third_Party/FreeRTOS/Source/CMSIS_RTOS/cmsis_os.c ****   
1483:Middlewares/Third_Party/FreeRTOS/Source/CMSIS_RTOS/cmsis_os.c ****   return osOK;
1484:Middlewares/Third_Party/FreeRTOS/Source/CMSIS_RTOS/cmsis_os.c **** #else
1485:Middlewares/Third_Party/FreeRTOS/Source/CMSIS_RTOS/cmsis_os.c ****   return osErrorResource;
1486:Middlewares/Third_Party/FreeRTOS/Source/CMSIS_RTOS/cmsis_os.c **** #endif
1487:Middlewares/Third_Party/FreeRTOS/Source/CMSIS_RTOS/cmsis_os.c **** }
 3354              		.loc 1 1487 0
 3355 0006 0020     		movs	r0, #0
 3356 0008 08BD     		pop	{r3, pc}
 3357              		.cfi_endproc
 3358              	.LFE71:
ARM GAS  C:\Users\ALEX'S~1\AppData\Local\Temp\ccjCNn9l.s 			page 95


 3360 000a 00BF     		.section	.text.osThreadResume,"ax",%progbits
 3361              		.align	1
 3362              		.p2align 2,,3
 3363              		.global	osThreadResume
 3364              		.syntax unified
 3365              		.thumb
 3366              		.thumb_func
 3367              		.fpu fpv4-sp-d16
 3369              	osThreadResume:
 3370              	.LFB72:
1488:Middlewares/Third_Party/FreeRTOS/Source/CMSIS_RTOS/cmsis_os.c **** 
1489:Middlewares/Third_Party/FreeRTOS/Source/CMSIS_RTOS/cmsis_os.c **** /**
1490:Middlewares/Third_Party/FreeRTOS/Source/CMSIS_RTOS/cmsis_os.c **** * @brief  Resume execution of a suspended thread.
1491:Middlewares/Third_Party/FreeRTOS/Source/CMSIS_RTOS/cmsis_os.c **** * @param   thread_id   thread ID obtained by \ref osThreadCreate or \ref osThreadGetId.
1492:Middlewares/Third_Party/FreeRTOS/Source/CMSIS_RTOS/cmsis_os.c **** * @retval  status code that indicates the execution status of the function.
1493:Middlewares/Third_Party/FreeRTOS/Source/CMSIS_RTOS/cmsis_os.c **** */
1494:Middlewares/Third_Party/FreeRTOS/Source/CMSIS_RTOS/cmsis_os.c **** osStatus osThreadResume (osThreadId thread_id)
1495:Middlewares/Third_Party/FreeRTOS/Source/CMSIS_RTOS/cmsis_os.c **** {
 3371              		.loc 1 1495 0
 3372              		.cfi_startproc
 3373              		@ args = 0, pretend = 0, frame = 0
 3374              		@ frame_needed = 0, uses_anonymous_args = 0
 3375              	.LVL264:
 3376 0000 08B5     		push	{r3, lr}
 3377              	.LCFI100:
 3378              		.cfi_def_cfa_offset 8
 3379              		.cfi_offset 3, -8
 3380              		.cfi_offset 14, -4
 3381              	.LBB294:
 3382              	.LBB295:
 3383              	.LBB296:
 3384              		.loc 2 109 0
 3385              		.syntax unified
 3386              	@ 109 "Drivers/CMSIS/Include/cmsis_gcc.h" 1
 3387 0002 EFF30583 		MRS r3, ipsr
 3388              	@ 0 "" 2
 3389              		.thumb
 3390              		.syntax unified
 3391              	.LBE296:
 3392              	.LBE295:
 3393              	.LBE294:
1496:Middlewares/Third_Party/FreeRTOS/Source/CMSIS_RTOS/cmsis_os.c **** #if (INCLUDE_vTaskSuspend == 1)  
1497:Middlewares/Third_Party/FreeRTOS/Source/CMSIS_RTOS/cmsis_os.c ****   if(inHandlerMode())
 3394              		.loc 1 1497 0
 3395 0006 2BB1     		cbz	r3, .L327
1498:Middlewares/Third_Party/FreeRTOS/Source/CMSIS_RTOS/cmsis_os.c ****   {
1499:Middlewares/Third_Party/FreeRTOS/Source/CMSIS_RTOS/cmsis_os.c ****     if (xTaskResumeFromISR(thread_id) == pdTRUE)
 3396              		.loc 1 1499 0
 3397 0008 FFF7FEFF 		bl	xTaskResumeFromISR
 3398              	.LVL265:
 3399 000c 0128     		cmp	r0, #1
 3400 000e 05D0     		beq	.L330
1500:Middlewares/Third_Party/FreeRTOS/Source/CMSIS_RTOS/cmsis_os.c ****     {
1501:Middlewares/Third_Party/FreeRTOS/Source/CMSIS_RTOS/cmsis_os.c ****       portYIELD_FROM_ISR(pdTRUE);
1502:Middlewares/Third_Party/FreeRTOS/Source/CMSIS_RTOS/cmsis_os.c ****     }
1503:Middlewares/Third_Party/FreeRTOS/Source/CMSIS_RTOS/cmsis_os.c ****   }
1504:Middlewares/Third_Party/FreeRTOS/Source/CMSIS_RTOS/cmsis_os.c ****   else
ARM GAS  C:\Users\ALEX'S~1\AppData\Local\Temp\ccjCNn9l.s 			page 96


1505:Middlewares/Third_Party/FreeRTOS/Source/CMSIS_RTOS/cmsis_os.c ****   {
1506:Middlewares/Third_Party/FreeRTOS/Source/CMSIS_RTOS/cmsis_os.c ****     vTaskResume(thread_id);
1507:Middlewares/Third_Party/FreeRTOS/Source/CMSIS_RTOS/cmsis_os.c ****   }
1508:Middlewares/Third_Party/FreeRTOS/Source/CMSIS_RTOS/cmsis_os.c ****   return osOK;
1509:Middlewares/Third_Party/FreeRTOS/Source/CMSIS_RTOS/cmsis_os.c **** #else
1510:Middlewares/Third_Party/FreeRTOS/Source/CMSIS_RTOS/cmsis_os.c ****   return osErrorResource;
1511:Middlewares/Third_Party/FreeRTOS/Source/CMSIS_RTOS/cmsis_os.c **** #endif
1512:Middlewares/Third_Party/FreeRTOS/Source/CMSIS_RTOS/cmsis_os.c **** }
 3401              		.loc 1 1512 0
 3402 0010 0020     		movs	r0, #0
 3403 0012 08BD     		pop	{r3, pc}
 3404              	.LVL266:
 3405              	.L327:
1506:Middlewares/Third_Party/FreeRTOS/Source/CMSIS_RTOS/cmsis_os.c ****   }
 3406              		.loc 1 1506 0
 3407 0014 FFF7FEFF 		bl	vTaskResume
 3408              	.LVL267:
 3409              		.loc 1 1512 0
 3410 0018 0020     		movs	r0, #0
 3411 001a 08BD     		pop	{r3, pc}
 3412              	.L330:
1501:Middlewares/Third_Party/FreeRTOS/Source/CMSIS_RTOS/cmsis_os.c ****     }
 3413              		.loc 1 1501 0 discriminator 1
 3414 001c 044B     		ldr	r3, .L331
 3415 001e 4FF08052 		mov	r2, #268435456
 3416 0022 1A60     		str	r2, [r3]
 3417              		.syntax unified
 3418              	@ 1501 "Middlewares/Third_Party/FreeRTOS/Source/CMSIS_RTOS/cmsis_os.c" 1
 3419 0024 BFF34F8F 		dsb
 3420              	@ 0 "" 2
 3421              	@ 1501 "Middlewares/Third_Party/FreeRTOS/Source/CMSIS_RTOS/cmsis_os.c" 1
 3422 0028 BFF36F8F 		isb
 3423              	@ 0 "" 2
 3424              		.loc 1 1512 0 discriminator 1
 3425              		.thumb
 3426              		.syntax unified
 3427 002c 0020     		movs	r0, #0
 3428 002e 08BD     		pop	{r3, pc}
 3429              	.L332:
 3430              		.align	2
 3431              	.L331:
 3432 0030 04ED00E0 		.word	-536810236
 3433              		.cfi_endproc
 3434              	.LFE72:
 3436              		.section	.text.osThreadSuspendAll,"ax",%progbits
 3437              		.align	1
 3438              		.p2align 2,,3
 3439              		.global	osThreadSuspendAll
 3440              		.syntax unified
 3441              		.thumb
 3442              		.thumb_func
 3443              		.fpu fpv4-sp-d16
 3445              	osThreadSuspendAll:
 3446              	.LFB73:
1513:Middlewares/Third_Party/FreeRTOS/Source/CMSIS_RTOS/cmsis_os.c **** 
1514:Middlewares/Third_Party/FreeRTOS/Source/CMSIS_RTOS/cmsis_os.c **** /**
1515:Middlewares/Third_Party/FreeRTOS/Source/CMSIS_RTOS/cmsis_os.c **** * @brief  Suspend execution of a all active threads.
ARM GAS  C:\Users\ALEX'S~1\AppData\Local\Temp\ccjCNn9l.s 			page 97


1516:Middlewares/Third_Party/FreeRTOS/Source/CMSIS_RTOS/cmsis_os.c **** * @retval  status code that indicates the execution status of the function.
1517:Middlewares/Third_Party/FreeRTOS/Source/CMSIS_RTOS/cmsis_os.c **** */
1518:Middlewares/Third_Party/FreeRTOS/Source/CMSIS_RTOS/cmsis_os.c **** osStatus osThreadSuspendAll (void)
1519:Middlewares/Third_Party/FreeRTOS/Source/CMSIS_RTOS/cmsis_os.c **** {
 3447              		.loc 1 1519 0
 3448              		.cfi_startproc
 3449              		@ args = 0, pretend = 0, frame = 0
 3450              		@ frame_needed = 0, uses_anonymous_args = 0
 3451 0000 08B5     		push	{r3, lr}
 3452              	.LCFI101:
 3453              		.cfi_def_cfa_offset 8
 3454              		.cfi_offset 3, -8
 3455              		.cfi_offset 14, -4
1520:Middlewares/Third_Party/FreeRTOS/Source/CMSIS_RTOS/cmsis_os.c ****   vTaskSuspendAll();
 3456              		.loc 1 1520 0
 3457 0002 FFF7FEFF 		bl	vTaskSuspendAll
 3458              	.LVL268:
1521:Middlewares/Third_Party/FreeRTOS/Source/CMSIS_RTOS/cmsis_os.c ****   
1522:Middlewares/Third_Party/FreeRTOS/Source/CMSIS_RTOS/cmsis_os.c ****   return osOK;
1523:Middlewares/Third_Party/FreeRTOS/Source/CMSIS_RTOS/cmsis_os.c **** }
 3459              		.loc 1 1523 0
 3460 0006 0020     		movs	r0, #0
 3461 0008 08BD     		pop	{r3, pc}
 3462              		.cfi_endproc
 3463              	.LFE73:
 3465 000a 00BF     		.section	.text.osThreadResumeAll,"ax",%progbits
 3466              		.align	1
 3467              		.p2align 2,,3
 3468              		.global	osThreadResumeAll
 3469              		.syntax unified
 3470              		.thumb
 3471              		.thumb_func
 3472              		.fpu fpv4-sp-d16
 3474              	osThreadResumeAll:
 3475              	.LFB74:
1524:Middlewares/Third_Party/FreeRTOS/Source/CMSIS_RTOS/cmsis_os.c **** 
1525:Middlewares/Third_Party/FreeRTOS/Source/CMSIS_RTOS/cmsis_os.c **** /**
1526:Middlewares/Third_Party/FreeRTOS/Source/CMSIS_RTOS/cmsis_os.c **** * @brief  Resume execution of a all suspended threads.
1527:Middlewares/Third_Party/FreeRTOS/Source/CMSIS_RTOS/cmsis_os.c **** * @retval  status code that indicates the execution status of the function.
1528:Middlewares/Third_Party/FreeRTOS/Source/CMSIS_RTOS/cmsis_os.c **** */
1529:Middlewares/Third_Party/FreeRTOS/Source/CMSIS_RTOS/cmsis_os.c **** osStatus osThreadResumeAll (void)
1530:Middlewares/Third_Party/FreeRTOS/Source/CMSIS_RTOS/cmsis_os.c **** {
 3476              		.loc 1 1530 0
 3477              		.cfi_startproc
 3478              		@ args = 0, pretend = 0, frame = 0
 3479              		@ frame_needed = 0, uses_anonymous_args = 0
 3480 0000 08B5     		push	{r3, lr}
 3481              	.LCFI102:
 3482              		.cfi_def_cfa_offset 8
 3483              		.cfi_offset 3, -8
 3484              		.cfi_offset 14, -4
1531:Middlewares/Third_Party/FreeRTOS/Source/CMSIS_RTOS/cmsis_os.c ****   if (xTaskResumeAll() == pdTRUE)
 3485              		.loc 1 1531 0
 3486 0002 FFF7FEFF 		bl	xTaskResumeAll
 3487              	.LVL269:
 3488 0006 0128     		cmp	r0, #1
1532:Middlewares/Third_Party/FreeRTOS/Source/CMSIS_RTOS/cmsis_os.c ****     return osOK;
ARM GAS  C:\Users\ALEX'S~1\AppData\Local\Temp\ccjCNn9l.s 			page 98


1533:Middlewares/Third_Party/FreeRTOS/Source/CMSIS_RTOS/cmsis_os.c ****   else
1534:Middlewares/Third_Party/FreeRTOS/Source/CMSIS_RTOS/cmsis_os.c ****     return osErrorOS;
1535:Middlewares/Third_Party/FreeRTOS/Source/CMSIS_RTOS/cmsis_os.c ****   
1536:Middlewares/Third_Party/FreeRTOS/Source/CMSIS_RTOS/cmsis_os.c **** }
 3489              		.loc 1 1536 0
 3490 0008 14BF     		ite	ne
 3491 000a FF20     		movne	r0, #255
 3492 000c 0020     		moveq	r0, #0
 3493 000e 08BD     		pop	{r3, pc}
 3494              		.cfi_endproc
 3495              	.LFE74:
 3497              		.section	.text.osDelayUntil,"ax",%progbits
 3498              		.align	1
 3499              		.p2align 2,,3
 3500              		.global	osDelayUntil
 3501              		.syntax unified
 3502              		.thumb
 3503              		.thumb_func
 3504              		.fpu fpv4-sp-d16
 3506              	osDelayUntil:
 3507              	.LFB75:
1537:Middlewares/Third_Party/FreeRTOS/Source/CMSIS_RTOS/cmsis_os.c **** 
1538:Middlewares/Third_Party/FreeRTOS/Source/CMSIS_RTOS/cmsis_os.c **** /**
1539:Middlewares/Third_Party/FreeRTOS/Source/CMSIS_RTOS/cmsis_os.c **** * @brief  Delay a task until a specified time
1540:Middlewares/Third_Party/FreeRTOS/Source/CMSIS_RTOS/cmsis_os.c **** * @param   PreviousWakeTime   Pointer to a variable that holds the time at which the 
1541:Middlewares/Third_Party/FreeRTOS/Source/CMSIS_RTOS/cmsis_os.c **** *          task was last unblocked. PreviousWakeTime must be initialised with the current time
1542:Middlewares/Third_Party/FreeRTOS/Source/CMSIS_RTOS/cmsis_os.c **** *          prior to its first use (PreviousWakeTime = osKernelSysTick() )
1543:Middlewares/Third_Party/FreeRTOS/Source/CMSIS_RTOS/cmsis_os.c **** * @param   millisec    time delay value
1544:Middlewares/Third_Party/FreeRTOS/Source/CMSIS_RTOS/cmsis_os.c **** * @retval  status code that indicates the execution status of the function.
1545:Middlewares/Third_Party/FreeRTOS/Source/CMSIS_RTOS/cmsis_os.c **** */
1546:Middlewares/Third_Party/FreeRTOS/Source/CMSIS_RTOS/cmsis_os.c **** osStatus osDelayUntil (uint32_t *PreviousWakeTime, uint32_t millisec)
1547:Middlewares/Third_Party/FreeRTOS/Source/CMSIS_RTOS/cmsis_os.c **** {
 3508              		.loc 1 1547 0
 3509              		.cfi_startproc
 3510              		@ args = 0, pretend = 0, frame = 0
 3511              		@ frame_needed = 0, uses_anonymous_args = 0
 3512              		@ link register save eliminated.
 3513              	.LVL270:
1548:Middlewares/Third_Party/FreeRTOS/Source/CMSIS_RTOS/cmsis_os.c **** #if INCLUDE_vTaskDelayUntil
1549:Middlewares/Third_Party/FreeRTOS/Source/CMSIS_RTOS/cmsis_os.c ****   TickType_t ticks = (millisec / portTICK_PERIOD_MS);
1550:Middlewares/Third_Party/FreeRTOS/Source/CMSIS_RTOS/cmsis_os.c ****   vTaskDelayUntil((TickType_t *) PreviousWakeTime, ticks ? ticks : 1);
1551:Middlewares/Third_Party/FreeRTOS/Source/CMSIS_RTOS/cmsis_os.c ****   
1552:Middlewares/Third_Party/FreeRTOS/Source/CMSIS_RTOS/cmsis_os.c ****   return osOK;
1553:Middlewares/Third_Party/FreeRTOS/Source/CMSIS_RTOS/cmsis_os.c **** #else
1554:Middlewares/Third_Party/FreeRTOS/Source/CMSIS_RTOS/cmsis_os.c ****   (void) millisec;
1555:Middlewares/Third_Party/FreeRTOS/Source/CMSIS_RTOS/cmsis_os.c ****   (void) PreviousWakeTime;
1556:Middlewares/Third_Party/FreeRTOS/Source/CMSIS_RTOS/cmsis_os.c ****   
1557:Middlewares/Third_Party/FreeRTOS/Source/CMSIS_RTOS/cmsis_os.c ****   return osErrorResource;
1558:Middlewares/Third_Party/FreeRTOS/Source/CMSIS_RTOS/cmsis_os.c **** #endif
1559:Middlewares/Third_Party/FreeRTOS/Source/CMSIS_RTOS/cmsis_os.c **** }
 3514              		.loc 1 1559 0
 3515 0000 8120     		movs	r0, #129
 3516              	.LVL271:
 3517 0002 7047     		bx	lr
 3518              		.cfi_endproc
 3519              	.LFE75:
 3521              		.section	.text.osAbortDelay,"ax",%progbits
ARM GAS  C:\Users\ALEX'S~1\AppData\Local\Temp\ccjCNn9l.s 			page 99


 3522              		.align	1
 3523              		.p2align 2,,3
 3524              		.global	osAbortDelay
 3525              		.syntax unified
 3526              		.thumb
 3527              		.thumb_func
 3528              		.fpu fpv4-sp-d16
 3530              	osAbortDelay:
 3531              	.LFB76:
1560:Middlewares/Third_Party/FreeRTOS/Source/CMSIS_RTOS/cmsis_os.c **** 
1561:Middlewares/Third_Party/FreeRTOS/Source/CMSIS_RTOS/cmsis_os.c **** /**
1562:Middlewares/Third_Party/FreeRTOS/Source/CMSIS_RTOS/cmsis_os.c **** * @brief   Abort the delay for a specific thread
1563:Middlewares/Third_Party/FreeRTOS/Source/CMSIS_RTOS/cmsis_os.c **** * @param   thread_id   thread ID obtained by \ref osThreadCreate or \ref osThreadGetId   
1564:Middlewares/Third_Party/FreeRTOS/Source/CMSIS_RTOS/cmsis_os.c **** * @retval  status code that indicates the execution status of the function.
1565:Middlewares/Third_Party/FreeRTOS/Source/CMSIS_RTOS/cmsis_os.c **** */
1566:Middlewares/Third_Party/FreeRTOS/Source/CMSIS_RTOS/cmsis_os.c **** osStatus osAbortDelay(osThreadId thread_id)
1567:Middlewares/Third_Party/FreeRTOS/Source/CMSIS_RTOS/cmsis_os.c **** {
 3532              		.loc 1 1567 0
 3533              		.cfi_startproc
 3534              		@ args = 0, pretend = 0, frame = 0
 3535              		@ frame_needed = 0, uses_anonymous_args = 0
 3536              		@ link register save eliminated.
 3537              	.LVL272:
1568:Middlewares/Third_Party/FreeRTOS/Source/CMSIS_RTOS/cmsis_os.c **** #if INCLUDE_xTaskAbortDelay
1569:Middlewares/Third_Party/FreeRTOS/Source/CMSIS_RTOS/cmsis_os.c ****   
1570:Middlewares/Third_Party/FreeRTOS/Source/CMSIS_RTOS/cmsis_os.c ****   xTaskAbortDelay(thread_id);
1571:Middlewares/Third_Party/FreeRTOS/Source/CMSIS_RTOS/cmsis_os.c ****   
1572:Middlewares/Third_Party/FreeRTOS/Source/CMSIS_RTOS/cmsis_os.c ****   return osOK;
1573:Middlewares/Third_Party/FreeRTOS/Source/CMSIS_RTOS/cmsis_os.c **** #else
1574:Middlewares/Third_Party/FreeRTOS/Source/CMSIS_RTOS/cmsis_os.c ****   (void) thread_id;
1575:Middlewares/Third_Party/FreeRTOS/Source/CMSIS_RTOS/cmsis_os.c ****   
1576:Middlewares/Third_Party/FreeRTOS/Source/CMSIS_RTOS/cmsis_os.c ****   return osErrorResource;
1577:Middlewares/Third_Party/FreeRTOS/Source/CMSIS_RTOS/cmsis_os.c **** #endif
1578:Middlewares/Third_Party/FreeRTOS/Source/CMSIS_RTOS/cmsis_os.c **** }
 3538              		.loc 1 1578 0
 3539 0000 8120     		movs	r0, #129
 3540              	.LVL273:
 3541 0002 7047     		bx	lr
 3542              		.cfi_endproc
 3543              	.LFE76:
 3545              		.section	.text.osThreadList,"ax",%progbits
 3546              		.align	1
 3547              		.p2align 2,,3
 3548              		.global	osThreadList
 3549              		.syntax unified
 3550              		.thumb
 3551              		.thumb_func
 3552              		.fpu fpv4-sp-d16
 3554              	osThreadList:
 3555              	.LFB77:
1579:Middlewares/Third_Party/FreeRTOS/Source/CMSIS_RTOS/cmsis_os.c **** 
1580:Middlewares/Third_Party/FreeRTOS/Source/CMSIS_RTOS/cmsis_os.c **** /**
1581:Middlewares/Third_Party/FreeRTOS/Source/CMSIS_RTOS/cmsis_os.c **** * @brief   Lists all the current threads, along with their current state 
1582:Middlewares/Third_Party/FreeRTOS/Source/CMSIS_RTOS/cmsis_os.c **** *          and stack usage high water mark.
1583:Middlewares/Third_Party/FreeRTOS/Source/CMSIS_RTOS/cmsis_os.c **** * @param   buffer   A buffer into which the above mentioned details
1584:Middlewares/Third_Party/FreeRTOS/Source/CMSIS_RTOS/cmsis_os.c **** *          will be written
1585:Middlewares/Third_Party/FreeRTOS/Source/CMSIS_RTOS/cmsis_os.c **** * @retval  status code that indicates the execution status of the function.
ARM GAS  C:\Users\ALEX'S~1\AppData\Local\Temp\ccjCNn9l.s 			page 100


1586:Middlewares/Third_Party/FreeRTOS/Source/CMSIS_RTOS/cmsis_os.c **** */
1587:Middlewares/Third_Party/FreeRTOS/Source/CMSIS_RTOS/cmsis_os.c **** osStatus osThreadList (uint8_t *buffer)
1588:Middlewares/Third_Party/FreeRTOS/Source/CMSIS_RTOS/cmsis_os.c **** {
 3556              		.loc 1 1588 0
 3557              		.cfi_startproc
 3558              		@ args = 0, pretend = 0, frame = 0
 3559              		@ frame_needed = 0, uses_anonymous_args = 0
 3560              		@ link register save eliminated.
 3561              	.LVL274:
1589:Middlewares/Third_Party/FreeRTOS/Source/CMSIS_RTOS/cmsis_os.c **** #if ( ( configUSE_TRACE_FACILITY == 1 ) && ( configUSE_STATS_FORMATTING_FUNCTIONS == 1 ) )
1590:Middlewares/Third_Party/FreeRTOS/Source/CMSIS_RTOS/cmsis_os.c ****   vTaskList((char *)buffer);
1591:Middlewares/Third_Party/FreeRTOS/Source/CMSIS_RTOS/cmsis_os.c **** #endif
1592:Middlewares/Third_Party/FreeRTOS/Source/CMSIS_RTOS/cmsis_os.c ****   return osOK;
1593:Middlewares/Third_Party/FreeRTOS/Source/CMSIS_RTOS/cmsis_os.c **** }
 3562              		.loc 1 1593 0
 3563 0000 0020     		movs	r0, #0
 3564              	.LVL275:
 3565 0002 7047     		bx	lr
 3566              		.cfi_endproc
 3567              	.LFE77:
 3569              		.section	.text.osMessagePeek,"ax",%progbits
 3570              		.align	1
 3571              		.p2align 2,,3
 3572              		.global	osMessagePeek
 3573              		.syntax unified
 3574              		.thumb
 3575              		.thumb_func
 3576              		.fpu fpv4-sp-d16
 3578              	osMessagePeek:
 3579              	.LFB78:
1594:Middlewares/Third_Party/FreeRTOS/Source/CMSIS_RTOS/cmsis_os.c **** 
1595:Middlewares/Third_Party/FreeRTOS/Source/CMSIS_RTOS/cmsis_os.c **** /**
1596:Middlewares/Third_Party/FreeRTOS/Source/CMSIS_RTOS/cmsis_os.c **** * @brief  Receive an item from a queue without removing the item from the queue.
1597:Middlewares/Third_Party/FreeRTOS/Source/CMSIS_RTOS/cmsis_os.c **** * @param  queue_id  message queue ID obtained with \ref osMessageCreate.
1598:Middlewares/Third_Party/FreeRTOS/Source/CMSIS_RTOS/cmsis_os.c **** * @param  millisec  timeout value or 0 in case of no time-out.
1599:Middlewares/Third_Party/FreeRTOS/Source/CMSIS_RTOS/cmsis_os.c **** * @retval event information that includes status code.
1600:Middlewares/Third_Party/FreeRTOS/Source/CMSIS_RTOS/cmsis_os.c **** */
1601:Middlewares/Third_Party/FreeRTOS/Source/CMSIS_RTOS/cmsis_os.c **** osEvent osMessagePeek (osMessageQId queue_id, uint32_t millisec)
1602:Middlewares/Third_Party/FreeRTOS/Source/CMSIS_RTOS/cmsis_os.c **** {
 3580              		.loc 1 1602 0
 3581              		.cfi_startproc
 3582              		@ args = 0, pretend = 0, frame = 16
 3583              		@ frame_needed = 0, uses_anonymous_args = 0
 3584              	.LVL276:
 3585 0000 30B5     		push	{r4, r5, lr}
 3586              	.LCFI103:
 3587              		.cfi_def_cfa_offset 12
 3588              		.cfi_offset 4, -12
 3589              		.cfi_offset 5, -8
 3590              		.cfi_offset 14, -4
 3591 0002 85B0     		sub	sp, sp, #20
 3592              	.LCFI104:
 3593              		.cfi_def_cfa_offset 32
 3594              		.loc 1 1602 0
 3595 0004 0446     		mov	r4, r0
1603:Middlewares/Third_Party/FreeRTOS/Source/CMSIS_RTOS/cmsis_os.c ****   TickType_t ticks;
1604:Middlewares/Third_Party/FreeRTOS/Source/CMSIS_RTOS/cmsis_os.c ****   osEvent event;
ARM GAS  C:\Users\ALEX'S~1\AppData\Local\Temp\ccjCNn9l.s 			page 101


1605:Middlewares/Third_Party/FreeRTOS/Source/CMSIS_RTOS/cmsis_os.c ****   
1606:Middlewares/Third_Party/FreeRTOS/Source/CMSIS_RTOS/cmsis_os.c ****   event.def.message_id = queue_id;
 3596              		.loc 1 1606 0
 3597 0006 0391     		str	r1, [sp, #12]
1607:Middlewares/Third_Party/FreeRTOS/Source/CMSIS_RTOS/cmsis_os.c ****   
1608:Middlewares/Third_Party/FreeRTOS/Source/CMSIS_RTOS/cmsis_os.c ****   if (queue_id == NULL) {
 3598              		.loc 1 1608 0
 3599 0008 F1B1     		cbz	r1, .L360
1609:Middlewares/Third_Party/FreeRTOS/Source/CMSIS_RTOS/cmsis_os.c ****     event.status = osErrorParameter;
1610:Middlewares/Third_Party/FreeRTOS/Source/CMSIS_RTOS/cmsis_os.c ****     return event;
1611:Middlewares/Third_Party/FreeRTOS/Source/CMSIS_RTOS/cmsis_os.c ****   }
1612:Middlewares/Third_Party/FreeRTOS/Source/CMSIS_RTOS/cmsis_os.c ****   
1613:Middlewares/Third_Party/FreeRTOS/Source/CMSIS_RTOS/cmsis_os.c ****   ticks = 0;
1614:Middlewares/Third_Party/FreeRTOS/Source/CMSIS_RTOS/cmsis_os.c ****   if (millisec == osWaitForever) {
 3600              		.loc 1 1614 0
 3601 000a 531C     		adds	r3, r2, #1
 3602 000c 1546     		mov	r5, r2
 3603              	.LVL277:
 3604 000e 11D0     		beq	.L345
1615:Middlewares/Third_Party/FreeRTOS/Source/CMSIS_RTOS/cmsis_os.c ****     ticks = portMAX_DELAY;
1616:Middlewares/Third_Party/FreeRTOS/Source/CMSIS_RTOS/cmsis_os.c ****   }
1617:Middlewares/Third_Party/FreeRTOS/Source/CMSIS_RTOS/cmsis_os.c ****   else if (millisec != 0) {
 3605              		.loc 1 1617 0
 3606 0010 82B9     		cbnz	r2, .L345
1618:Middlewares/Third_Party/FreeRTOS/Source/CMSIS_RTOS/cmsis_os.c ****     ticks = millisec / portTICK_PERIOD_MS;
1619:Middlewares/Third_Party/FreeRTOS/Source/CMSIS_RTOS/cmsis_os.c ****     if (ticks == 0) {
1620:Middlewares/Third_Party/FreeRTOS/Source/CMSIS_RTOS/cmsis_os.c ****       ticks = 1;
1621:Middlewares/Third_Party/FreeRTOS/Source/CMSIS_RTOS/cmsis_os.c ****     }
1622:Middlewares/Third_Party/FreeRTOS/Source/CMSIS_RTOS/cmsis_os.c ****   }
1623:Middlewares/Third_Party/FreeRTOS/Source/CMSIS_RTOS/cmsis_os.c ****   
1624:Middlewares/Third_Party/FreeRTOS/Source/CMSIS_RTOS/cmsis_os.c ****   if (xQueuePeek(queue_id, &event.value.v, ticks) == pdTRUE) 
 3607              		.loc 1 1624 0
 3608 0012 0846     		mov	r0, r1
 3609              	.LVL278:
 3610 0014 0123     		movs	r3, #1
 3611 0016 02A9     		add	r1, sp, #8
 3612              	.LVL279:
 3613 0018 FFF7FEFF 		bl	xQueueGenericReceive
 3614              	.LVL280:
 3615 001c 0128     		cmp	r0, #1
 3616 001e 1ED0     		beq	.L347
 3617              	.LVL281:
 3618              	.L348:
 3619 0020 04AB     		add	r3, sp, #16
 3620 0022 43F80C5D 		str	r5, [r3, #-12]!
1625:Middlewares/Third_Party/FreeRTOS/Source/CMSIS_RTOS/cmsis_os.c ****   {
1626:Middlewares/Third_Party/FreeRTOS/Source/CMSIS_RTOS/cmsis_os.c ****     /* We have mail */
1627:Middlewares/Third_Party/FreeRTOS/Source/CMSIS_RTOS/cmsis_os.c ****     event.status = osEventMessage;
1628:Middlewares/Third_Party/FreeRTOS/Source/CMSIS_RTOS/cmsis_os.c ****   }
1629:Middlewares/Third_Party/FreeRTOS/Source/CMSIS_RTOS/cmsis_os.c ****   else 
1630:Middlewares/Third_Party/FreeRTOS/Source/CMSIS_RTOS/cmsis_os.c ****   {
1631:Middlewares/Third_Party/FreeRTOS/Source/CMSIS_RTOS/cmsis_os.c ****     event.status = (ticks == 0) ? osOK : osEventTimeout;
1632:Middlewares/Third_Party/FreeRTOS/Source/CMSIS_RTOS/cmsis_os.c ****   }
1633:Middlewares/Third_Party/FreeRTOS/Source/CMSIS_RTOS/cmsis_os.c ****   
1634:Middlewares/Third_Party/FreeRTOS/Source/CMSIS_RTOS/cmsis_os.c ****   return event;
 3621              		.loc 1 1634 0
 3622 0026 93E80700 		ldm	r3, {r0, r1, r2}
ARM GAS  C:\Users\ALEX'S~1\AppData\Local\Temp\ccjCNn9l.s 			page 102


 3623 002a 84E80700 		stm	r4, {r0, r1, r2}
1635:Middlewares/Third_Party/FreeRTOS/Source/CMSIS_RTOS/cmsis_os.c **** }
 3624              		.loc 1 1635 0
 3625 002e 2046     		mov	r0, r4
 3626 0030 05B0     		add	sp, sp, #20
 3627              	.LCFI105:
 3628              		.cfi_remember_state
 3629              		.cfi_def_cfa_offset 12
 3630              		@ sp needed
 3631 0032 30BD     		pop	{r4, r5, pc}
 3632              	.LVL282:
 3633              	.L345:
 3634              	.LCFI106:
 3635              		.cfi_restore_state
1624:Middlewares/Third_Party/FreeRTOS/Source/CMSIS_RTOS/cmsis_os.c ****   {
 3636              		.loc 1 1624 0
 3637 0034 0846     		mov	r0, r1
 3638              	.LVL283:
 3639 0036 2A46     		mov	r2, r5
 3640              	.LVL284:
 3641 0038 0123     		movs	r3, #1
 3642 003a 02A9     		add	r1, sp, #8
 3643              	.LVL285:
 3644 003c FFF7FEFF 		bl	xQueueGenericReceive
 3645              	.LVL286:
 3646 0040 0128     		cmp	r0, #1
 3647 0042 0CD0     		beq	.L347
1631:Middlewares/Third_Party/FreeRTOS/Source/CMSIS_RTOS/cmsis_os.c ****   }
 3648              		.loc 1 1631 0
 3649 0044 4025     		movs	r5, #64
 3650              	.LVL287:
 3651 0046 EBE7     		b	.L348
 3652              	.LVL288:
 3653              	.L360:
1609:Middlewares/Third_Party/FreeRTOS/Source/CMSIS_RTOS/cmsis_os.c ****     return event;
 3654              		.loc 1 1609 0
 3655 0048 04AB     		add	r3, sp, #16
 3656 004a 8022     		movs	r2, #128
 3657              	.LVL289:
 3658 004c 43F80C2D 		str	r2, [r3, #-12]!
1610:Middlewares/Third_Party/FreeRTOS/Source/CMSIS_RTOS/cmsis_os.c ****   }
 3659              		.loc 1 1610 0
 3660 0050 93E80700 		ldm	r3, {r0, r1, r2}
 3661              	.LVL290:
 3662 0054 84E80700 		stm	r4, {r0, r1, r2}
 3663              		.loc 1 1635 0
 3664 0058 2046     		mov	r0, r4
 3665 005a 05B0     		add	sp, sp, #20
 3666              	.LCFI107:
 3667              		.cfi_remember_state
 3668              		.cfi_def_cfa_offset 12
 3669              		@ sp needed
 3670 005c 30BD     		pop	{r4, r5, pc}
 3671              	.LVL291:
 3672              	.L347:
 3673              	.LCFI108:
 3674              		.cfi_restore_state
ARM GAS  C:\Users\ALEX'S~1\AppData\Local\Temp\ccjCNn9l.s 			page 103


1627:Middlewares/Third_Party/FreeRTOS/Source/CMSIS_RTOS/cmsis_os.c ****   }
 3675              		.loc 1 1627 0
 3676 005e 1025     		movs	r5, #16
 3677              	.LVL292:
 3678 0060 DEE7     		b	.L348
 3679              		.cfi_endproc
 3680              	.LFE78:
 3682 0062 00BF     		.section	.text.osMessageWaiting,"ax",%progbits
 3683              		.align	1
 3684              		.p2align 2,,3
 3685              		.global	osMessageWaiting
 3686              		.syntax unified
 3687              		.thumb
 3688              		.thumb_func
 3689              		.fpu fpv4-sp-d16
 3691              	osMessageWaiting:
 3692              	.LFB79:
1636:Middlewares/Third_Party/FreeRTOS/Source/CMSIS_RTOS/cmsis_os.c **** 
1637:Middlewares/Third_Party/FreeRTOS/Source/CMSIS_RTOS/cmsis_os.c **** /**
1638:Middlewares/Third_Party/FreeRTOS/Source/CMSIS_RTOS/cmsis_os.c **** * @brief  Get the number of messaged stored in a queue.
1639:Middlewares/Third_Party/FreeRTOS/Source/CMSIS_RTOS/cmsis_os.c **** * @param  queue_id  message queue ID obtained with \ref osMessageCreate.
1640:Middlewares/Third_Party/FreeRTOS/Source/CMSIS_RTOS/cmsis_os.c **** * @retval number of messages stored in a queue.
1641:Middlewares/Third_Party/FreeRTOS/Source/CMSIS_RTOS/cmsis_os.c **** */
1642:Middlewares/Third_Party/FreeRTOS/Source/CMSIS_RTOS/cmsis_os.c **** uint32_t osMessageWaiting(osMessageQId queue_id)
1643:Middlewares/Third_Party/FreeRTOS/Source/CMSIS_RTOS/cmsis_os.c **** {
 3693              		.loc 1 1643 0
 3694              		.cfi_startproc
 3695              		@ args = 0, pretend = 0, frame = 0
 3696              		@ frame_needed = 0, uses_anonymous_args = 0
 3697              		@ link register save eliminated.
 3698              	.LVL293:
 3699              	.LBB297:
 3700              	.LBB298:
 3701              	.LBB299:
 3702              		.loc 2 109 0
 3703              		.syntax unified
 3704              	@ 109 "Drivers/CMSIS/Include/cmsis_gcc.h" 1
 3705 0000 EFF30583 		MRS r3, ipsr
 3706              	@ 0 "" 2
 3707              		.thumb
 3708              		.syntax unified
 3709              	.LBE299:
 3710              	.LBE298:
 3711              	.LBE297:
1644:Middlewares/Third_Party/FreeRTOS/Source/CMSIS_RTOS/cmsis_os.c ****   if (inHandlerMode()) {
 3712              		.loc 1 1644 0
 3713 0004 0BB9     		cbnz	r3, .L363
1645:Middlewares/Third_Party/FreeRTOS/Source/CMSIS_RTOS/cmsis_os.c ****     return uxQueueMessagesWaitingFromISR(queue_id);
1646:Middlewares/Third_Party/FreeRTOS/Source/CMSIS_RTOS/cmsis_os.c ****   }
1647:Middlewares/Third_Party/FreeRTOS/Source/CMSIS_RTOS/cmsis_os.c ****   else
1648:Middlewares/Third_Party/FreeRTOS/Source/CMSIS_RTOS/cmsis_os.c ****   {
1649:Middlewares/Third_Party/FreeRTOS/Source/CMSIS_RTOS/cmsis_os.c ****     return uxQueueMessagesWaiting(queue_id);
 3714              		.loc 1 1649 0
 3715 0006 FFF7FEBF 		b	uxQueueMessagesWaiting
 3716              	.LVL294:
 3717              	.L363:
1645:Middlewares/Third_Party/FreeRTOS/Source/CMSIS_RTOS/cmsis_os.c ****     return uxQueueMessagesWaitingFromISR(queue_id);
ARM GAS  C:\Users\ALEX'S~1\AppData\Local\Temp\ccjCNn9l.s 			page 104


 3718              		.loc 1 1645 0
 3719 000a FFF7FEBF 		b	uxQueueMessagesWaitingFromISR
 3720              	.LVL295:
 3721              		.cfi_endproc
 3722              	.LFE79:
 3724 000e 00BF     		.section	.text.osMessageAvailableSpace,"ax",%progbits
 3725              		.align	1
 3726              		.p2align 2,,3
 3727              		.global	osMessageAvailableSpace
 3728              		.syntax unified
 3729              		.thumb
 3730              		.thumb_func
 3731              		.fpu fpv4-sp-d16
 3733              	osMessageAvailableSpace:
 3734              	.LFB80:
1650:Middlewares/Third_Party/FreeRTOS/Source/CMSIS_RTOS/cmsis_os.c ****   }
1651:Middlewares/Third_Party/FreeRTOS/Source/CMSIS_RTOS/cmsis_os.c **** }
1652:Middlewares/Third_Party/FreeRTOS/Source/CMSIS_RTOS/cmsis_os.c **** 
1653:Middlewares/Third_Party/FreeRTOS/Source/CMSIS_RTOS/cmsis_os.c **** /**
1654:Middlewares/Third_Party/FreeRTOS/Source/CMSIS_RTOS/cmsis_os.c **** * @brief  Get the available space in a message queue.
1655:Middlewares/Third_Party/FreeRTOS/Source/CMSIS_RTOS/cmsis_os.c **** * @param  queue_id  message queue ID obtained with \ref osMessageCreate.
1656:Middlewares/Third_Party/FreeRTOS/Source/CMSIS_RTOS/cmsis_os.c **** * @retval available space in a message queue.
1657:Middlewares/Third_Party/FreeRTOS/Source/CMSIS_RTOS/cmsis_os.c **** */
1658:Middlewares/Third_Party/FreeRTOS/Source/CMSIS_RTOS/cmsis_os.c **** uint32_t osMessageAvailableSpace(osMessageQId queue_id)  
1659:Middlewares/Third_Party/FreeRTOS/Source/CMSIS_RTOS/cmsis_os.c **** {
 3735              		.loc 1 1659 0
 3736              		.cfi_startproc
 3737              		@ args = 0, pretend = 0, frame = 0
 3738              		@ frame_needed = 0, uses_anonymous_args = 0
 3739              		@ link register save eliminated.
 3740              	.LVL296:
1660:Middlewares/Third_Party/FreeRTOS/Source/CMSIS_RTOS/cmsis_os.c ****   return uxQueueSpacesAvailable(queue_id);
 3741              		.loc 1 1660 0
 3742 0000 FFF7FEBF 		b	uxQueueSpacesAvailable
 3743              	.LVL297:
 3744              		.cfi_endproc
 3745              	.LFE80:
 3747              		.section	.text.osMessageDelete,"ax",%progbits
 3748              		.align	1
 3749              		.p2align 2,,3
 3750              		.global	osMessageDelete
 3751              		.syntax unified
 3752              		.thumb
 3753              		.thumb_func
 3754              		.fpu fpv4-sp-d16
 3756              	osMessageDelete:
 3757              	.LFB93:
 3758              		.cfi_startproc
 3759              		@ args = 0, pretend = 0, frame = 0
 3760              		@ frame_needed = 0, uses_anonymous_args = 0
 3761 0000 10B5     		push	{r4, lr}
 3762              	.LCFI109:
 3763              		.cfi_def_cfa_offset 8
 3764              		.cfi_offset 4, -8
 3765              		.cfi_offset 14, -4
 3766              		.syntax unified
 3767              	@ 109 "Drivers/CMSIS/Include/cmsis_gcc.h" 1
ARM GAS  C:\Users\ALEX'S~1\AppData\Local\Temp\ccjCNn9l.s 			page 105


 3768 0002 EFF30584 		MRS r4, ipsr
 3769              	@ 0 "" 2
 3770              		.thumb
 3771              		.syntax unified
 3772 0006 1CB9     		cbnz	r4, .L367
 3773 0008 FFF7FEFF 		bl	vQueueDelete
 3774 000c 2046     		mov	r0, r4
 3775 000e 10BD     		pop	{r4, pc}
 3776              	.L367:
 3777 0010 8220     		movs	r0, #130
 3778 0012 10BD     		pop	{r4, pc}
 3779              		.cfi_endproc
 3780              	.LFE93:
 3782              		.section	.text.osRecursiveMutexCreate,"ax",%progbits
 3783              		.align	1
 3784              		.p2align 2,,3
 3785              		.global	osRecursiveMutexCreate
 3786              		.syntax unified
 3787              		.thumb
 3788              		.thumb_func
 3789              		.fpu fpv4-sp-d16
 3791              	osRecursiveMutexCreate:
 3792              	.LFB82:
1661:Middlewares/Third_Party/FreeRTOS/Source/CMSIS_RTOS/cmsis_os.c **** }
1662:Middlewares/Third_Party/FreeRTOS/Source/CMSIS_RTOS/cmsis_os.c **** 
1663:Middlewares/Third_Party/FreeRTOS/Source/CMSIS_RTOS/cmsis_os.c **** /**
1664:Middlewares/Third_Party/FreeRTOS/Source/CMSIS_RTOS/cmsis_os.c **** * @brief Delete a Message Queue
1665:Middlewares/Third_Party/FreeRTOS/Source/CMSIS_RTOS/cmsis_os.c **** * @param  queue_id  message queue ID obtained with \ref osMessageCreate.
1666:Middlewares/Third_Party/FreeRTOS/Source/CMSIS_RTOS/cmsis_os.c **** * @retval  status code that indicates the execution status of the function.
1667:Middlewares/Third_Party/FreeRTOS/Source/CMSIS_RTOS/cmsis_os.c **** */
1668:Middlewares/Third_Party/FreeRTOS/Source/CMSIS_RTOS/cmsis_os.c **** osStatus osMessageDelete (osMessageQId queue_id)
1669:Middlewares/Third_Party/FreeRTOS/Source/CMSIS_RTOS/cmsis_os.c **** {
1670:Middlewares/Third_Party/FreeRTOS/Source/CMSIS_RTOS/cmsis_os.c ****   if (inHandlerMode()) {
1671:Middlewares/Third_Party/FreeRTOS/Source/CMSIS_RTOS/cmsis_os.c ****     return osErrorISR;
1672:Middlewares/Third_Party/FreeRTOS/Source/CMSIS_RTOS/cmsis_os.c ****   }
1673:Middlewares/Third_Party/FreeRTOS/Source/CMSIS_RTOS/cmsis_os.c **** 
1674:Middlewares/Third_Party/FreeRTOS/Source/CMSIS_RTOS/cmsis_os.c ****   vQueueDelete(queue_id);
1675:Middlewares/Third_Party/FreeRTOS/Source/CMSIS_RTOS/cmsis_os.c **** 
1676:Middlewares/Third_Party/FreeRTOS/Source/CMSIS_RTOS/cmsis_os.c ****   return osOK; 
1677:Middlewares/Third_Party/FreeRTOS/Source/CMSIS_RTOS/cmsis_os.c **** }
1678:Middlewares/Third_Party/FreeRTOS/Source/CMSIS_RTOS/cmsis_os.c **** 
1679:Middlewares/Third_Party/FreeRTOS/Source/CMSIS_RTOS/cmsis_os.c **** /**
1680:Middlewares/Third_Party/FreeRTOS/Source/CMSIS_RTOS/cmsis_os.c **** * @brief  Create and Initialize a Recursive Mutex
1681:Middlewares/Third_Party/FreeRTOS/Source/CMSIS_RTOS/cmsis_os.c **** * @param  mutex_def     mutex definition referenced with \ref osMutex.
1682:Middlewares/Third_Party/FreeRTOS/Source/CMSIS_RTOS/cmsis_os.c **** * @retval  mutex ID for reference by other functions or NULL in case of error..
1683:Middlewares/Third_Party/FreeRTOS/Source/CMSIS_RTOS/cmsis_os.c **** */
1684:Middlewares/Third_Party/FreeRTOS/Source/CMSIS_RTOS/cmsis_os.c **** osMutexId osRecursiveMutexCreate (const osMutexDef_t *mutex_def)
1685:Middlewares/Third_Party/FreeRTOS/Source/CMSIS_RTOS/cmsis_os.c **** {
 3793              		.loc 1 1685 0
 3794              		.cfi_startproc
 3795              		@ args = 0, pretend = 0, frame = 0
 3796              		@ frame_needed = 0, uses_anonymous_args = 0
 3797              		@ link register save eliminated.
 3798              	.LVL298:
1686:Middlewares/Third_Party/FreeRTOS/Source/CMSIS_RTOS/cmsis_os.c **** #if (configUSE_RECURSIVE_MUTEXES == 1)
1687:Middlewares/Third_Party/FreeRTOS/Source/CMSIS_RTOS/cmsis_os.c **** #if( configSUPPORT_STATIC_ALLOCATION == 1 ) && ( configSUPPORT_DYNAMIC_ALLOCATION == 1 )
1688:Middlewares/Third_Party/FreeRTOS/Source/CMSIS_RTOS/cmsis_os.c **** 
ARM GAS  C:\Users\ALEX'S~1\AppData\Local\Temp\ccjCNn9l.s 			page 106


1689:Middlewares/Third_Party/FreeRTOS/Source/CMSIS_RTOS/cmsis_os.c ****   if (mutex_def->controlblock != NULL){
1690:Middlewares/Third_Party/FreeRTOS/Source/CMSIS_RTOS/cmsis_os.c ****     return xSemaphoreCreateRecursiveMutexStatic( mutex_def->controlblock );
1691:Middlewares/Third_Party/FreeRTOS/Source/CMSIS_RTOS/cmsis_os.c ****   }
1692:Middlewares/Third_Party/FreeRTOS/Source/CMSIS_RTOS/cmsis_os.c ****   else {
1693:Middlewares/Third_Party/FreeRTOS/Source/CMSIS_RTOS/cmsis_os.c ****     return xSemaphoreCreateRecursiveMutex();
1694:Middlewares/Third_Party/FreeRTOS/Source/CMSIS_RTOS/cmsis_os.c ****   }
1695:Middlewares/Third_Party/FreeRTOS/Source/CMSIS_RTOS/cmsis_os.c **** #elif ( configSUPPORT_STATIC_ALLOCATION == 1 )
1696:Middlewares/Third_Party/FreeRTOS/Source/CMSIS_RTOS/cmsis_os.c ****   return xSemaphoreCreateRecursiveMutexStatic( mutex_def->controlblock );
1697:Middlewares/Third_Party/FreeRTOS/Source/CMSIS_RTOS/cmsis_os.c **** #else 
1698:Middlewares/Third_Party/FreeRTOS/Source/CMSIS_RTOS/cmsis_os.c ****   return xSemaphoreCreateRecursiveMutex();
1699:Middlewares/Third_Party/FreeRTOS/Source/CMSIS_RTOS/cmsis_os.c **** #endif
1700:Middlewares/Third_Party/FreeRTOS/Source/CMSIS_RTOS/cmsis_os.c **** #else
1701:Middlewares/Third_Party/FreeRTOS/Source/CMSIS_RTOS/cmsis_os.c ****   return NULL;
1702:Middlewares/Third_Party/FreeRTOS/Source/CMSIS_RTOS/cmsis_os.c **** #endif	
1703:Middlewares/Third_Party/FreeRTOS/Source/CMSIS_RTOS/cmsis_os.c **** }
 3799              		.loc 1 1703 0
 3800 0000 0020     		movs	r0, #0
 3801              	.LVL299:
 3802 0002 7047     		bx	lr
 3803              		.cfi_endproc
 3804              	.LFE82:
 3806              		.section	.text.osRecursiveMutexRelease,"ax",%progbits
 3807              		.align	1
 3808              		.p2align 2,,3
 3809              		.global	osRecursiveMutexRelease
 3810              		.syntax unified
 3811              		.thumb
 3812              		.thumb_func
 3813              		.fpu fpv4-sp-d16
 3815              	osRecursiveMutexRelease:
 3816              	.LFB97:
 3817              		.cfi_startproc
 3818              		@ args = 0, pretend = 0, frame = 0
 3819              		@ frame_needed = 0, uses_anonymous_args = 0
 3820              		@ link register save eliminated.
 3821 0000 8120     		movs	r0, #129
 3822 0002 7047     		bx	lr
 3823              		.cfi_endproc
 3824              	.LFE97:
 3826              		.section	.text.osRecursiveMutexWait,"ax",%progbits
 3827              		.align	1
 3828              		.p2align 2,,3
 3829              		.global	osRecursiveMutexWait
 3830              		.syntax unified
 3831              		.thumb
 3832              		.thumb_func
 3833              		.fpu fpv4-sp-d16
 3835              	osRecursiveMutexWait:
 3836              	.LFB95:
 3837              		.cfi_startproc
 3838              		@ args = 0, pretend = 0, frame = 0
 3839              		@ frame_needed = 0, uses_anonymous_args = 0
 3840              		@ link register save eliminated.
 3841 0000 8120     		movs	r0, #129
 3842 0002 7047     		bx	lr
 3843              		.cfi_endproc
 3844              	.LFE95:
ARM GAS  C:\Users\ALEX'S~1\AppData\Local\Temp\ccjCNn9l.s 			page 107


 3846              		.section	.text.osSemaphoreGetCount,"ax",%progbits
 3847              		.align	1
 3848              		.p2align 2,,3
 3849              		.global	osSemaphoreGetCount
 3850              		.syntax unified
 3851              		.thumb
 3852              		.thumb_func
 3853              		.fpu fpv4-sp-d16
 3855              	osSemaphoreGetCount:
 3856              	.LFB85:
1704:Middlewares/Third_Party/FreeRTOS/Source/CMSIS_RTOS/cmsis_os.c **** 
1705:Middlewares/Third_Party/FreeRTOS/Source/CMSIS_RTOS/cmsis_os.c **** /**
1706:Middlewares/Third_Party/FreeRTOS/Source/CMSIS_RTOS/cmsis_os.c **** * @brief  Release a Recursive Mutex
1707:Middlewares/Third_Party/FreeRTOS/Source/CMSIS_RTOS/cmsis_os.c **** * @param   mutex_id      mutex ID obtained by \ref osRecursiveMutexCreate.
1708:Middlewares/Third_Party/FreeRTOS/Source/CMSIS_RTOS/cmsis_os.c **** * @retval  status code that indicates the execution status of the function.
1709:Middlewares/Third_Party/FreeRTOS/Source/CMSIS_RTOS/cmsis_os.c **** */
1710:Middlewares/Third_Party/FreeRTOS/Source/CMSIS_RTOS/cmsis_os.c **** osStatus osRecursiveMutexRelease (osMutexId mutex_id)
1711:Middlewares/Third_Party/FreeRTOS/Source/CMSIS_RTOS/cmsis_os.c **** {
1712:Middlewares/Third_Party/FreeRTOS/Source/CMSIS_RTOS/cmsis_os.c **** #if (configUSE_RECURSIVE_MUTEXES == 1)
1713:Middlewares/Third_Party/FreeRTOS/Source/CMSIS_RTOS/cmsis_os.c ****   osStatus result = osOK;
1714:Middlewares/Third_Party/FreeRTOS/Source/CMSIS_RTOS/cmsis_os.c ****  
1715:Middlewares/Third_Party/FreeRTOS/Source/CMSIS_RTOS/cmsis_os.c ****   if (xSemaphoreGiveRecursive(mutex_id) != pdTRUE) 
1716:Middlewares/Third_Party/FreeRTOS/Source/CMSIS_RTOS/cmsis_os.c ****   {
1717:Middlewares/Third_Party/FreeRTOS/Source/CMSIS_RTOS/cmsis_os.c ****     result = osErrorOS;
1718:Middlewares/Third_Party/FreeRTOS/Source/CMSIS_RTOS/cmsis_os.c ****   }
1719:Middlewares/Third_Party/FreeRTOS/Source/CMSIS_RTOS/cmsis_os.c ****   return result;
1720:Middlewares/Third_Party/FreeRTOS/Source/CMSIS_RTOS/cmsis_os.c **** #else
1721:Middlewares/Third_Party/FreeRTOS/Source/CMSIS_RTOS/cmsis_os.c **** 	return osErrorResource;
1722:Middlewares/Third_Party/FreeRTOS/Source/CMSIS_RTOS/cmsis_os.c **** #endif
1723:Middlewares/Third_Party/FreeRTOS/Source/CMSIS_RTOS/cmsis_os.c **** }
1724:Middlewares/Third_Party/FreeRTOS/Source/CMSIS_RTOS/cmsis_os.c **** 
1725:Middlewares/Third_Party/FreeRTOS/Source/CMSIS_RTOS/cmsis_os.c **** /**
1726:Middlewares/Third_Party/FreeRTOS/Source/CMSIS_RTOS/cmsis_os.c **** * @brief  Release a Recursive Mutex
1727:Middlewares/Third_Party/FreeRTOS/Source/CMSIS_RTOS/cmsis_os.c **** * @param   mutex_id    mutex ID obtained by \ref osRecursiveMutexCreate.
1728:Middlewares/Third_Party/FreeRTOS/Source/CMSIS_RTOS/cmsis_os.c **** * @param millisec      timeout value or 0 in case of no time-out.
1729:Middlewares/Third_Party/FreeRTOS/Source/CMSIS_RTOS/cmsis_os.c **** * @retval  status code that indicates the execution status of the function.
1730:Middlewares/Third_Party/FreeRTOS/Source/CMSIS_RTOS/cmsis_os.c **** */
1731:Middlewares/Third_Party/FreeRTOS/Source/CMSIS_RTOS/cmsis_os.c **** osStatus osRecursiveMutexWait (osMutexId mutex_id, uint32_t millisec)
1732:Middlewares/Third_Party/FreeRTOS/Source/CMSIS_RTOS/cmsis_os.c **** {
1733:Middlewares/Third_Party/FreeRTOS/Source/CMSIS_RTOS/cmsis_os.c **** #if (configUSE_RECURSIVE_MUTEXES == 1)
1734:Middlewares/Third_Party/FreeRTOS/Source/CMSIS_RTOS/cmsis_os.c ****   TickType_t ticks;
1735:Middlewares/Third_Party/FreeRTOS/Source/CMSIS_RTOS/cmsis_os.c ****   
1736:Middlewares/Third_Party/FreeRTOS/Source/CMSIS_RTOS/cmsis_os.c ****   if (mutex_id == NULL)
1737:Middlewares/Third_Party/FreeRTOS/Source/CMSIS_RTOS/cmsis_os.c ****   {
1738:Middlewares/Third_Party/FreeRTOS/Source/CMSIS_RTOS/cmsis_os.c ****     return osErrorParameter;
1739:Middlewares/Third_Party/FreeRTOS/Source/CMSIS_RTOS/cmsis_os.c ****   }
1740:Middlewares/Third_Party/FreeRTOS/Source/CMSIS_RTOS/cmsis_os.c ****   
1741:Middlewares/Third_Party/FreeRTOS/Source/CMSIS_RTOS/cmsis_os.c ****   ticks = 0;
1742:Middlewares/Third_Party/FreeRTOS/Source/CMSIS_RTOS/cmsis_os.c ****   if (millisec == osWaitForever) 
1743:Middlewares/Third_Party/FreeRTOS/Source/CMSIS_RTOS/cmsis_os.c ****   {
1744:Middlewares/Third_Party/FreeRTOS/Source/CMSIS_RTOS/cmsis_os.c ****     ticks = portMAX_DELAY;
1745:Middlewares/Third_Party/FreeRTOS/Source/CMSIS_RTOS/cmsis_os.c ****   }
1746:Middlewares/Third_Party/FreeRTOS/Source/CMSIS_RTOS/cmsis_os.c ****   else if (millisec != 0) 
1747:Middlewares/Third_Party/FreeRTOS/Source/CMSIS_RTOS/cmsis_os.c ****   {
1748:Middlewares/Third_Party/FreeRTOS/Source/CMSIS_RTOS/cmsis_os.c ****     ticks = millisec / portTICK_PERIOD_MS;
1749:Middlewares/Third_Party/FreeRTOS/Source/CMSIS_RTOS/cmsis_os.c ****     if (ticks == 0) 
1750:Middlewares/Third_Party/FreeRTOS/Source/CMSIS_RTOS/cmsis_os.c ****     {
ARM GAS  C:\Users\ALEX'S~1\AppData\Local\Temp\ccjCNn9l.s 			page 108


1751:Middlewares/Third_Party/FreeRTOS/Source/CMSIS_RTOS/cmsis_os.c ****       ticks = 1;
1752:Middlewares/Third_Party/FreeRTOS/Source/CMSIS_RTOS/cmsis_os.c ****     }
1753:Middlewares/Third_Party/FreeRTOS/Source/CMSIS_RTOS/cmsis_os.c ****   }
1754:Middlewares/Third_Party/FreeRTOS/Source/CMSIS_RTOS/cmsis_os.c ****   
1755:Middlewares/Third_Party/FreeRTOS/Source/CMSIS_RTOS/cmsis_os.c ****   if (xSemaphoreTakeRecursive(mutex_id, ticks) != pdTRUE) 
1756:Middlewares/Third_Party/FreeRTOS/Source/CMSIS_RTOS/cmsis_os.c ****   {
1757:Middlewares/Third_Party/FreeRTOS/Source/CMSIS_RTOS/cmsis_os.c ****     return osErrorOS;
1758:Middlewares/Third_Party/FreeRTOS/Source/CMSIS_RTOS/cmsis_os.c ****   }
1759:Middlewares/Third_Party/FreeRTOS/Source/CMSIS_RTOS/cmsis_os.c ****   return osOK;
1760:Middlewares/Third_Party/FreeRTOS/Source/CMSIS_RTOS/cmsis_os.c **** #else
1761:Middlewares/Third_Party/FreeRTOS/Source/CMSIS_RTOS/cmsis_os.c **** 	return osErrorResource;
1762:Middlewares/Third_Party/FreeRTOS/Source/CMSIS_RTOS/cmsis_os.c **** #endif
1763:Middlewares/Third_Party/FreeRTOS/Source/CMSIS_RTOS/cmsis_os.c **** }
1764:Middlewares/Third_Party/FreeRTOS/Source/CMSIS_RTOS/cmsis_os.c **** 
1765:Middlewares/Third_Party/FreeRTOS/Source/CMSIS_RTOS/cmsis_os.c **** /**
1766:Middlewares/Third_Party/FreeRTOS/Source/CMSIS_RTOS/cmsis_os.c **** * @brief  Returns the current count value of a counting semaphore
1767:Middlewares/Third_Party/FreeRTOS/Source/CMSIS_RTOS/cmsis_os.c **** * @param  semaphore_id  semaphore_id ID obtained by \ref osSemaphoreCreate.
1768:Middlewares/Third_Party/FreeRTOS/Source/CMSIS_RTOS/cmsis_os.c **** * @retval  count value
1769:Middlewares/Third_Party/FreeRTOS/Source/CMSIS_RTOS/cmsis_os.c **** */
1770:Middlewares/Third_Party/FreeRTOS/Source/CMSIS_RTOS/cmsis_os.c **** uint32_t osSemaphoreGetCount(osSemaphoreId semaphore_id)
1771:Middlewares/Third_Party/FreeRTOS/Source/CMSIS_RTOS/cmsis_os.c **** {
 3857              		.loc 1 1771 0
 3858              		.cfi_startproc
 3859              		@ args = 0, pretend = 0, frame = 0
 3860              		@ frame_needed = 0, uses_anonymous_args = 0
 3861              		@ link register save eliminated.
 3862              	.LVL300:
1772:Middlewares/Third_Party/FreeRTOS/Source/CMSIS_RTOS/cmsis_os.c ****   return uxSemaphoreGetCount(semaphore_id);
 3863              		.loc 1 1772 0
 3864 0000 FFF7FEBF 		b	uxQueueMessagesWaiting
 3865              	.LVL301:
 3866              		.cfi_endproc
 3867              	.LFE85:
 3869              		.text
 3870              	.Letext0:
 3871              		.file 4 "c:\\program files (x86)\\gnu tools arm embedded\\7 2018-q2-update\\arm-none-eabi\\include
 3872              		.file 5 "c:\\program files (x86)\\gnu tools arm embedded\\7 2018-q2-update\\arm-none-eabi\\include
 3873              		.file 6 "c:\\program files (x86)\\gnu tools arm embedded\\7 2018-q2-update\\arm-none-eabi\\include
 3874              		.file 7 "c:\\program files (x86)\\gnu tools arm embedded\\7 2018-q2-update\\lib\\gcc\\arm-none-eab
 3875              		.file 8 "c:\\program files (x86)\\gnu tools arm embedded\\7 2018-q2-update\\arm-none-eabi\\include
 3876              		.file 9 "c:\\program files (x86)\\gnu tools arm embedded\\7 2018-q2-update\\arm-none-eabi\\include
 3877              		.file 10 "Inc/FreeRTOSConfig.h"
 3878              		.file 11 "Middlewares/Third_Party/FreeRTOS/Source/include/projdefs.h"
 3879              		.file 12 "Middlewares/Third_Party/FreeRTOS/Source/include/task.h"
 3880              		.file 13 "Middlewares/Third_Party/FreeRTOS/Source/include/timers.h"
 3881              		.file 14 "Middlewares/Third_Party/FreeRTOS/Source/include/queue.h"
 3882              		.file 15 "Middlewares/Third_Party/FreeRTOS/Source/include/semphr.h"
 3883              		.file 16 "Middlewares/Third_Party/FreeRTOS/Source/CMSIS_RTOS/cmsis_os.h"
 3884              		.file 17 "Middlewares/Third_Party/FreeRTOS/Source/include/portable.h"
ARM GAS  C:\Users\ALEX'S~1\AppData\Local\Temp\ccjCNn9l.s 			page 109


DEFINED SYMBOLS
                            *ABS*:00000000 cmsis_os.c
C:\Users\ALEX'S~1\AppData\Local\Temp\ccjCNn9l.s:18     .text.osKernelStart:00000000 $t
C:\Users\ALEX'S~1\AppData\Local\Temp\ccjCNn9l.s:26     .text.osKernelStart:00000000 osKernelStart
C:\Users\ALEX'S~1\AppData\Local\Temp\ccjCNn9l.s:48     .text.osKernelRunning:00000000 $t
C:\Users\ALEX'S~1\AppData\Local\Temp\ccjCNn9l.s:56     .text.osKernelRunning:00000000 osKernelRunning
C:\Users\ALEX'S~1\AppData\Local\Temp\ccjCNn9l.s:79     .text.osKernelSysTick:00000000 $t
C:\Users\ALEX'S~1\AppData\Local\Temp\ccjCNn9l.s:87     .text.osKernelSysTick:00000000 osKernelSysTick
C:\Users\ALEX'S~1\AppData\Local\Temp\ccjCNn9l.s:121    .text.osThreadCreate:00000000 $t
C:\Users\ALEX'S~1\AppData\Local\Temp\ccjCNn9l.s:129    .text.osThreadCreate:00000000 osThreadCreate
C:\Users\ALEX'S~1\AppData\Local\Temp\ccjCNn9l.s:197    .text.osThreadGetId:00000000 $t
C:\Users\ALEX'S~1\AppData\Local\Temp\ccjCNn9l.s:205    .text.osThreadGetId:00000000 osThreadGetId
C:\Users\ALEX'S~1\AppData\Local\Temp\ccjCNn9l.s:219    .text.osThreadTerminate:00000000 $t
C:\Users\ALEX'S~1\AppData\Local\Temp\ccjCNn9l.s:227    .text.osThreadTerminate:00000000 osThreadTerminate
C:\Users\ALEX'S~1\AppData\Local\Temp\ccjCNn9l.s:249    .text.osThreadYield:00000000 $t
C:\Users\ALEX'S~1\AppData\Local\Temp\ccjCNn9l.s:257    .text.osThreadYield:00000000 osThreadYield
C:\Users\ALEX'S~1\AppData\Local\Temp\ccjCNn9l.s:283    .text.osThreadYield:00000014 $d
C:\Users\ALEX'S~1\AppData\Local\Temp\ccjCNn9l.s:288    .text.osThreadSetPriority:00000000 $t
C:\Users\ALEX'S~1\AppData\Local\Temp\ccjCNn9l.s:296    .text.osThreadSetPriority:00000000 osThreadSetPriority
C:\Users\ALEX'S~1\AppData\Local\Temp\ccjCNn9l.s:331    .text.osThreadGetPriority:00000000 $t
C:\Users\ALEX'S~1\AppData\Local\Temp\ccjCNn9l.s:339    .text.osThreadGetPriority:00000000 osThreadGetPriority
C:\Users\ALEX'S~1\AppData\Local\Temp\ccjCNn9l.s:414    .text.osDelay:00000000 $t
C:\Users\ALEX'S~1\AppData\Local\Temp\ccjCNn9l.s:422    .text.osDelay:00000000 osDelay
C:\Users\ALEX'S~1\AppData\Local\Temp\ccjCNn9l.s:448    .text.osTimerCreate:00000000 $t
C:\Users\ALEX'S~1\AppData\Local\Temp\ccjCNn9l.s:456    .text.osTimerCreate:00000000 osTimerCreate
C:\Users\ALEX'S~1\AppData\Local\Temp\ccjCNn9l.s:472    .text.osTimerStart:00000000 $t
C:\Users\ALEX'S~1\AppData\Local\Temp\ccjCNn9l.s:480    .text.osTimerStart:00000000 osTimerStart
C:\Users\ALEX'S~1\AppData\Local\Temp\ccjCNn9l.s:496    .text.osTimerStop:00000000 $t
C:\Users\ALEX'S~1\AppData\Local\Temp\ccjCNn9l.s:504    .text.osTimerStop:00000000 osTimerStop
C:\Users\ALEX'S~1\AppData\Local\Temp\ccjCNn9l.s:520    .text.osTimerDelete:00000000 $t
C:\Users\ALEX'S~1\AppData\Local\Temp\ccjCNn9l.s:528    .text.osTimerDelete:00000000 osTimerDelete
C:\Users\ALEX'S~1\AppData\Local\Temp\ccjCNn9l.s:540    .text.osSignalSet:00000000 $t
C:\Users\ALEX'S~1\AppData\Local\Temp\ccjCNn9l.s:548    .text.osSignalSet:00000000 osSignalSet
C:\Users\ALEX'S~1\AppData\Local\Temp\ccjCNn9l.s:637    .text.osSignalSet:00000050 $d
C:\Users\ALEX'S~1\AppData\Local\Temp\ccjCNn9l.s:642    .text.osSignalWait:00000000 $t
C:\Users\ALEX'S~1\AppData\Local\Temp\ccjCNn9l.s:650    .text.osSignalWait:00000000 osSignalWait
C:\Users\ALEX'S~1\AppData\Local\Temp\ccjCNn9l.s:744    .text.osMutexCreate:00000000 $t
C:\Users\ALEX'S~1\AppData\Local\Temp\ccjCNn9l.s:752    .text.osMutexCreate:00000000 osMutexCreate
C:\Users\ALEX'S~1\AppData\Local\Temp\ccjCNn9l.s:769    .text.osMutexWait:00000000 $t
C:\Users\ALEX'S~1\AppData\Local\Temp\ccjCNn9l.s:777    .text.osMutexWait:00000000 osMutexWait
C:\Users\ALEX'S~1\AppData\Local\Temp\ccjCNn9l.s:897    .text.osMutexWait:00000058 $d
C:\Users\ALEX'S~1\AppData\Local\Temp\ccjCNn9l.s:902    .text.osMutexRelease:00000000 $t
C:\Users\ALEX'S~1\AppData\Local\Temp\ccjCNn9l.s:910    .text.osMutexRelease:00000000 osMutexRelease
C:\Users\ALEX'S~1\AppData\Local\Temp\ccjCNn9l.s:1012   .text.osMutexRelease:0000004c $d
C:\Users\ALEX'S~1\AppData\Local\Temp\ccjCNn9l.s:1017   .text.osMutexDelete:00000000 $t
C:\Users\ALEX'S~1\AppData\Local\Temp\ccjCNn9l.s:1025   .text.osMutexDelete:00000000 osMutexDelete
C:\Users\ALEX'S~1\AppData\Local\Temp\ccjCNn9l.s:1070   .text.osSemaphoreCreate:00000000 $t
C:\Users\ALEX'S~1\AppData\Local\Temp\ccjCNn9l.s:1078   .text.osSemaphoreCreate:00000000 osSemaphoreCreate
C:\Users\ALEX'S~1\AppData\Local\Temp\ccjCNn9l.s:1127   .text.osSemaphoreWait:00000000 $t
C:\Users\ALEX'S~1\AppData\Local\Temp\ccjCNn9l.s:1135   .text.osSemaphoreWait:00000000 osSemaphoreWait
C:\Users\ALEX'S~1\AppData\Local\Temp\ccjCNn9l.s:1255   .text.osSemaphoreWait:00000058 $d
C:\Users\ALEX'S~1\AppData\Local\Temp\ccjCNn9l.s:1260   .text.osSemaphoreRelease:00000000 $t
C:\Users\ALEX'S~1\AppData\Local\Temp\ccjCNn9l.s:1268   .text.osSemaphoreRelease:00000000 osSemaphoreRelease
C:\Users\ALEX'S~1\AppData\Local\Temp\ccjCNn9l.s:1344   .text.osSemaphoreRelease:0000004c $d
C:\Users\ALEX'S~1\AppData\Local\Temp\ccjCNn9l.s:1349   .text.osSemaphoreDelete:00000000 $t
C:\Users\ALEX'S~1\AppData\Local\Temp\ccjCNn9l.s:1357   .text.osSemaphoreDelete:00000000 osSemaphoreDelete
C:\Users\ALEX'S~1\AppData\Local\Temp\ccjCNn9l.s:1384   .text.osPoolCreate:00000000 $t
ARM GAS  C:\Users\ALEX'S~1\AppData\Local\Temp\ccjCNn9l.s 			page 110


C:\Users\ALEX'S~1\AppData\Local\Temp\ccjCNn9l.s:1392   .text.osPoolCreate:00000000 osPoolCreate
C:\Users\ALEX'S~1\AppData\Local\Temp\ccjCNn9l.s:1512   .text.osPoolAlloc:00000000 $t
C:\Users\ALEX'S~1\AppData\Local\Temp\ccjCNn9l.s:1520   .text.osPoolAlloc:00000000 osPoolAlloc
C:\Users\ALEX'S~1\AppData\Local\Temp\ccjCNn9l.s:1690   .text.osPoolCAlloc:00000000 $t
C:\Users\ALEX'S~1\AppData\Local\Temp\ccjCNn9l.s:1698   .text.osPoolCAlloc:00000000 osPoolCAlloc
C:\Users\ALEX'S~1\AppData\Local\Temp\ccjCNn9l.s:1887   .text.osPoolFree:00000000 $t
C:\Users\ALEX'S~1\AppData\Local\Temp\ccjCNn9l.s:1895   .text.osPoolFree:00000000 osPoolFree
C:\Users\ALEX'S~1\AppData\Local\Temp\ccjCNn9l.s:1946   .text.osMessageCreate:00000000 $t
C:\Users\ALEX'S~1\AppData\Local\Temp\ccjCNn9l.s:1954   .text.osMessageCreate:00000000 osMessageCreate
C:\Users\ALEX'S~1\AppData\Local\Temp\ccjCNn9l.s:1972   .text.osMessagePut:00000000 $t
C:\Users\ALEX'S~1\AppData\Local\Temp\ccjCNn9l.s:1980   .text.osMessagePut:00000000 osMessagePut
C:\Users\ALEX'S~1\AppData\Local\Temp\ccjCNn9l.s:2095   .text.osMessagePut:00000054 $d
C:\Users\ALEX'S~1\AppData\Local\Temp\ccjCNn9l.s:2100   .text.osMessageGet:00000000 $t
C:\Users\ALEX'S~1\AppData\Local\Temp\ccjCNn9l.s:2108   .text.osMessageGet:00000000 osMessageGet
C:\Users\ALEX'S~1\AppData\Local\Temp\ccjCNn9l.s:2250   .text.osMessageGet:00000088 $d
C:\Users\ALEX'S~1\AppData\Local\Temp\ccjCNn9l.s:2255   .text.osMailCreate:00000000 $t
C:\Users\ALEX'S~1\AppData\Local\Temp\ccjCNn9l.s:2263   .text.osMailCreate:00000000 osMailCreate
C:\Users\ALEX'S~1\AppData\Local\Temp\ccjCNn9l.s:2449   .text.osMailAlloc:00000000 $t
C:\Users\ALEX'S~1\AppData\Local\Temp\ccjCNn9l.s:2457   .text.osMailAlloc:00000000 osMailAlloc
C:\Users\ALEX'S~1\AppData\Local\Temp\ccjCNn9l.s:2656   .text.osMailCAlloc:00000000 $t
C:\Users\ALEX'S~1\AppData\Local\Temp\ccjCNn9l.s:2664   .text.osMailCAlloc:00000000 osMailCAlloc
C:\Users\ALEX'S~1\AppData\Local\Temp\ccjCNn9l.s:2905   .text.osMailPut:00000000 $t
C:\Users\ALEX'S~1\AppData\Local\Temp\ccjCNn9l.s:2913   .text.osMailPut:00000000 osMailPut
C:\Users\ALEX'S~1\AppData\Local\Temp\ccjCNn9l.s:3037   .text.osMailPut:0000005c $d
C:\Users\ALEX'S~1\AppData\Local\Temp\ccjCNn9l.s:3042   .text.osMailGet:00000000 $t
C:\Users\ALEX'S~1\AppData\Local\Temp\ccjCNn9l.s:3050   .text.osMailGet:00000000 osMailGet
C:\Users\ALEX'S~1\AppData\Local\Temp\ccjCNn9l.s:3188   .text.osMailGet:00000084 $d
C:\Users\ALEX'S~1\AppData\Local\Temp\ccjCNn9l.s:3193   .text.osMailFree:00000000 $t
C:\Users\ALEX'S~1\AppData\Local\Temp\ccjCNn9l.s:3201   .text.osMailFree:00000000 osMailFree
C:\Users\ALEX'S~1\AppData\Local\Temp\ccjCNn9l.s:3288   .text.osSystickHandler:00000000 $t
C:\Users\ALEX'S~1\AppData\Local\Temp\ccjCNn9l.s:3296   .text.osSystickHandler:00000000 osSystickHandler
C:\Users\ALEX'S~1\AppData\Local\Temp\ccjCNn9l.s:3331   .text.osThreadSuspend:00000000 $t
C:\Users\ALEX'S~1\AppData\Local\Temp\ccjCNn9l.s:3339   .text.osThreadSuspend:00000000 osThreadSuspend
C:\Users\ALEX'S~1\AppData\Local\Temp\ccjCNn9l.s:3361   .text.osThreadResume:00000000 $t
C:\Users\ALEX'S~1\AppData\Local\Temp\ccjCNn9l.s:3369   .text.osThreadResume:00000000 osThreadResume
C:\Users\ALEX'S~1\AppData\Local\Temp\ccjCNn9l.s:3432   .text.osThreadResume:00000030 $d
C:\Users\ALEX'S~1\AppData\Local\Temp\ccjCNn9l.s:3437   .text.osThreadSuspendAll:00000000 $t
C:\Users\ALEX'S~1\AppData\Local\Temp\ccjCNn9l.s:3445   .text.osThreadSuspendAll:00000000 osThreadSuspendAll
C:\Users\ALEX'S~1\AppData\Local\Temp\ccjCNn9l.s:3466   .text.osThreadResumeAll:00000000 $t
C:\Users\ALEX'S~1\AppData\Local\Temp\ccjCNn9l.s:3474   .text.osThreadResumeAll:00000000 osThreadResumeAll
C:\Users\ALEX'S~1\AppData\Local\Temp\ccjCNn9l.s:3498   .text.osDelayUntil:00000000 $t
C:\Users\ALEX'S~1\AppData\Local\Temp\ccjCNn9l.s:3506   .text.osDelayUntil:00000000 osDelayUntil
C:\Users\ALEX'S~1\AppData\Local\Temp\ccjCNn9l.s:3522   .text.osAbortDelay:00000000 $t
C:\Users\ALEX'S~1\AppData\Local\Temp\ccjCNn9l.s:3530   .text.osAbortDelay:00000000 osAbortDelay
C:\Users\ALEX'S~1\AppData\Local\Temp\ccjCNn9l.s:3546   .text.osThreadList:00000000 $t
C:\Users\ALEX'S~1\AppData\Local\Temp\ccjCNn9l.s:3554   .text.osThreadList:00000000 osThreadList
C:\Users\ALEX'S~1\AppData\Local\Temp\ccjCNn9l.s:3570   .text.osMessagePeek:00000000 $t
C:\Users\ALEX'S~1\AppData\Local\Temp\ccjCNn9l.s:3578   .text.osMessagePeek:00000000 osMessagePeek
C:\Users\ALEX'S~1\AppData\Local\Temp\ccjCNn9l.s:3683   .text.osMessageWaiting:00000000 $t
C:\Users\ALEX'S~1\AppData\Local\Temp\ccjCNn9l.s:3691   .text.osMessageWaiting:00000000 osMessageWaiting
C:\Users\ALEX'S~1\AppData\Local\Temp\ccjCNn9l.s:3725   .text.osMessageAvailableSpace:00000000 $t
C:\Users\ALEX'S~1\AppData\Local\Temp\ccjCNn9l.s:3733   .text.osMessageAvailableSpace:00000000 osMessageAvailableSpace
C:\Users\ALEX'S~1\AppData\Local\Temp\ccjCNn9l.s:3748   .text.osMessageDelete:00000000 $t
C:\Users\ALEX'S~1\AppData\Local\Temp\ccjCNn9l.s:3756   .text.osMessageDelete:00000000 osMessageDelete
C:\Users\ALEX'S~1\AppData\Local\Temp\ccjCNn9l.s:3783   .text.osRecursiveMutexCreate:00000000 $t
C:\Users\ALEX'S~1\AppData\Local\Temp\ccjCNn9l.s:3791   .text.osRecursiveMutexCreate:00000000 osRecursiveMutexCreate
C:\Users\ALEX'S~1\AppData\Local\Temp\ccjCNn9l.s:3807   .text.osRecursiveMutexRelease:00000000 $t
ARM GAS  C:\Users\ALEX'S~1\AppData\Local\Temp\ccjCNn9l.s 			page 111


C:\Users\ALEX'S~1\AppData\Local\Temp\ccjCNn9l.s:3815   .text.osRecursiveMutexRelease:00000000 osRecursiveMutexRelease
C:\Users\ALEX'S~1\AppData\Local\Temp\ccjCNn9l.s:3827   .text.osRecursiveMutexWait:00000000 $t
C:\Users\ALEX'S~1\AppData\Local\Temp\ccjCNn9l.s:3835   .text.osRecursiveMutexWait:00000000 osRecursiveMutexWait
C:\Users\ALEX'S~1\AppData\Local\Temp\ccjCNn9l.s:3847   .text.osSemaphoreGetCount:00000000 $t
C:\Users\ALEX'S~1\AppData\Local\Temp\ccjCNn9l.s:3855   .text.osSemaphoreGetCount:00000000 osSemaphoreGetCount

UNDEFINED SYMBOLS
vTaskStartScheduler
xTaskGetSchedulerState
xTaskGetTickCount
xTaskGetTickCountFromISR
xTaskCreate
xTaskGetCurrentTaskHandle
vTaskDelete
vTaskPrioritySet
uxTaskPriorityGetFromISR
uxTaskPriorityGet
vTaskDelay
xTaskGenericNotifyFromISR
xTaskGenericNotify
xTaskNotifyWait
xQueueCreateMutex
xQueueGenericReceive
xQueueReceiveFromISR
xQueueGiveFromISR
xQueueGenericSend
vQueueDelete
xQueueGenericCreate
pvPortMalloc
vPortFree
vPortExitCritical
vPortEnterCritical
xQueueGenericSendFromISR
xPortSysTickHandler
vTaskSuspend
xTaskResumeFromISR
vTaskResume
vTaskSuspendAll
xTaskResumeAll
uxQueueMessagesWaiting
uxQueueMessagesWaitingFromISR
uxQueueSpacesAvailable
